   1               		.file	"uart0.c"
   2               		.arch atmega168
   3               	__SREG__ = 0x3f
   4               	__SP_H__ = 0x3e
   5               	__SP_L__ = 0x3d
   6               	__tmp_reg__ = 0
   7               	__zero_reg__ = 1
   8               		.global __do_copy_data
   9               		.global __do_clear_bss
  17               	.Ltext0:
  18               	.global	init_serial
  20               	init_serial:
  21               	.LFB3:
  22               	.LM1:
  23               	/* prologue: frame size=0 */
  24               	/* prologue end (size=0) */
  25               	.LM2:
  26 0000 8D30      		cpi r24,lo8(13)
  27 0002 89F0      		breq .L8
  28               	.LM3:
  29 0004 1092 C000 		sts 192,__zero_reg__
  30               	.LM4:
  31 0008 46E4      		ldi r20,lo8(70)
  32 000a 4093 C200 		sts 194,r20
  33               	.LM5:
  34 000e 1092 C500 		sts 197,__zero_reg__
  35               	.LM6:
  36 0012 34E4      		ldi r19,lo8(68)
  37 0014 3093 C400 		sts 196,r19
  38               	.LM7:
  39 0018 519A      		sbi 42-0x20,1
  40               	.LM8:
  41 001a 5498      		cbi 42-0x20,4
  42               	.LM9:
  43 001c 5C9A      		sbi 43-0x20,4
  44               	.LM10:
  45 001e 88E0      		ldi r24,lo8(8)
  46 0020 8093 C100 		sts 193,r24
  47 0024 0895      		ret
  48               	.L8:
  49               	.LM11:
  50 0026 22E0      		ldi r18,lo8(2)
  51 0028 2093 C000 		sts 192,r18
  52               	.LM12:
  53 002c 86E0      		ldi r24,lo8(6)
  54 002e 8093 C200 		sts 194,r24
  55               	.LM13:
  56 0032 1092 C500 		sts 197,__zero_reg__
  57               	.LM14:
  58 0036 1092 C400 		sts 196,__zero_reg__
  59               	.LM15:
  60 003a 519A      		sbi 42-0x20,1
  61               	.LM16:
  62 003c 5098      		cbi 42-0x20,0
  63               	.LM17:
  64 003e 5498      		cbi 42-0x20,4
  65               	.LM18:
  66 0040 1092 0000 		sts usrt_rx_count,__zero_reg__
  67               	.LM19:
  68 0044 80E9      		ldi r24,lo8(-112)
  69               	.LM20:
  70 0046 8093 C100 		sts 193,r24
  71 004a 0895      		ret
  72               	/* epilogue: frame size=0 */
  73 004c 0895      		ret
  74               	/* epilogue end (size=1) */
  75               	/* function init_serial size 39 (38) */
  76               	.LFE3:
  78               	.global	USRT_send_2bytes
  80               	USRT_send_2bytes:
  81               	.LFB4:
  82               	.LM21:
  83               	/* prologue: frame size=0 */
  84               	/* prologue end (size=0) */
  85               	.LM22:
  86 004e 8093 C600 		sts 198,r24
  87               	.LM23:
  88 0052 6093 C600 		sts 198,r22
  89               	/* epilogue: frame size=0 */
  90 0056 0895      		ret
  91               	/* epilogue end (size=1) */
  92               	/* function USRT_send_2bytes size 5 (4) */
  93               	.LFE4:
  95               	.global	send_byte_serial
  97               	send_byte_serial:
  98               	.LFB5:
  99               	.LM24:
 100               	/* prologue: frame size=0 */
 101               	/* prologue end (size=0) */
 102 0058 482F      		mov r20,r24
 103 005a 21E0      		ldi r18,lo8(1)
 104 005c 30E0      		ldi r19,hi8(1)
 105               	.L11:
 106               	.LM25:
 107 005e 8091 C000 		lds r24,192
 108 0062 9927      		clr r25
 109 0064 9695      		lsr r25
 110 0066 8795      		ror r24
 111 0068 9295      		swap r25
 112 006a 8295      		swap r24
 113 006c 8F70      		andi r24,0x0f
 114 006e 8927      		eor r24,r25
 115 0070 9F70      		andi r25,0x0f
 116 0072 8927      		eor r24,r25
 117 0074 8170      		andi r24,lo8(1)
 118 0076 9070      		andi r25,hi8(1)
 119 0078 8217      		cp r24,r18
 120 007a 9307      		cpc r25,r19
 121 007c 81F7      		brne .L11
 122               	.LM26:
 123 007e 4093 C600 		sts 198,r20
 124               	/* epilogue: frame size=0 */
 125 0082 0895      		ret
 126               	/* epilogue end (size=1) */
 127               	/* function send_byte_serial size 22 (21) */
 128               	.LFE5:
 130               	.global	uart0_force_byte
 132               	uart0_force_byte:
 133               	.LFB6:
 134               	.LM27:
 135               	/* prologue: frame size=0 */
 136               	/* prologue end (size=0) */
 137               	.LM28:
 138 0084 8093 C600 		sts 198,r24
 139               	/* epilogue: frame size=0 */
 140 0088 0895      		ret
 141               	/* epilogue end (size=1) */
 142               	/* function uart0_force_byte size 3 (2) */
 143               	.LFE6:
 145               	.global	UART_send_BIN4
 147               	UART_send_BIN4:
 148               	.LFB7:
 149               	.LM29:
 150               	/* prologue: frame size=0 */
 151               	/* prologue end (size=0) */
 152               	.LM30:
 153 008a 9927      		clr r25
 154 008c 8730      		cpi r24,7
 155 008e 9105      		cpc r25,__zero_reg__
 156 0090 09F4      		brne .+2
 157 0092 CBC0      		rjmp .L109
 158               	.LM31:
 159 0094 8830      		cpi r24,8
 160 0096 9105      		cpc r25,__zero_reg__
 161 0098 0CF0      		brlt .+2
 162 009a 65C0      		rjmp .L226
 163 009c 8330      		cpi r24,3
 164 009e 9105      		cpc r25,__zero_reg__
 165 00a0 09F4      		brne .+2
 166 00a2 D4C1      		rjmp .L57
 167 00a4 8430      		cpi r24,4
 168 00a6 9105      		cpc r25,__zero_reg__
 169 00a8 0CF0      		brlt .+2
 170 00aa 14C1      		rjmp .L227
 171 00ac 8130      		cpi r24,1
 172 00ae 9105      		cpc r25,__zero_reg__
 173 00b0 09F4      		brne .+2
 174 00b2 6CC3      		rjmp .L31
 175 00b4 8230      		cpi r24,2
 176 00b6 9105      		cpc r25,__zero_reg__
 177 00b8 0CF4      		brge .+2
 178 00ba AEC4      		rjmp .L362
 179 00bc 21E0      		ldi r18,lo8(1)
 180 00be 30E0      		ldi r19,hi8(1)
 181               	.L45:
 182               	.LBB2:
 183               	.LBB3:
 184               	.LM32:
 185 00c0 8091 C000 		lds r24,192
 186 00c4 9927      		clr r25
 187 00c6 9695      		lsr r25
 188 00c8 8795      		ror r24
 189 00ca 9295      		swap r25
 190 00cc 8295      		swap r24
 191 00ce 8F70      		andi r24,0x0f
 192 00d0 8927      		eor r24,r25
 193 00d2 9F70      		andi r25,0x0f
 194 00d4 8927      		eor r24,r25
 195 00d6 8170      		andi r24,lo8(1)
 196 00d8 9070      		andi r25,hi8(1)
 197 00da 8217      		cp r24,r18
 198 00dc 9307      		cpc r25,r19
 199 00de 81F7      		brne .L45
 200               	.LM33:
 201 00e0 70E3      		ldi r23,lo8(48)
 202 00e2 7093 C600 		sts 198,r23
 203 00e6 21E0      		ldi r18,lo8(1)
 204 00e8 30E0      		ldi r19,hi8(1)
 205               	.L48:
 206               	.LBE3:
 207               	.LBE2:
 208               	.LBB4:
 209               	.LBB5:
 210               	.LM34:
 211 00ea 8091 C000 		lds r24,192
 212 00ee 9927      		clr r25
 213 00f0 9695      		lsr r25
 214 00f2 8795      		ror r24
 215 00f4 9295      		swap r25
 216 00f6 8295      		swap r24
 217 00f8 8F70      		andi r24,0x0f
 218 00fa 8927      		eor r24,r25
 219 00fc 9F70      		andi r25,0x0f
 220 00fe 8927      		eor r24,r25
 221 0100 8170      		andi r24,lo8(1)
 222 0102 9070      		andi r25,hi8(1)
 223 0104 8217      		cp r24,r18
 224 0106 9307      		cpc r25,r19
 225 0108 81F7      		brne .L48
 226               	.LM35:
 227 010a 90E3      		ldi r25,lo8(48)
 228 010c 9093 C600 		sts 198,r25
 229 0110 21E0      		ldi r18,lo8(1)
 230 0112 30E0      		ldi r19,hi8(1)
 231               	.L51:
 232               	.LBE5:
 233               	.LBE4:
 234               	.LBB6:
 235               	.LBB7:
 236               	.LM36:
 237 0114 8091 C000 		lds r24,192
 238 0118 9927      		clr r25
 239 011a 9695      		lsr r25
 240 011c 8795      		ror r24
 241 011e 9295      		swap r25
 242 0120 8295      		swap r24
 243 0122 8F70      		andi r24,0x0f
 244 0124 8927      		eor r24,r25
 245 0126 9F70      		andi r25,0x0f
 246 0128 8927      		eor r24,r25
 247 012a 8170      		andi r24,lo8(1)
 248 012c 9070      		andi r25,hi8(1)
 249 012e 8217      		cp r24,r18
 250 0130 9307      		cpc r25,r19
 251 0132 81F7      		brne .L51
 252               	.LM37:
 253 0134 A1E3      		ldi r26,lo8(49)
 254 0136 A093 C600 		sts 198,r26
 255 013a 21E0      		ldi r18,lo8(1)
 256 013c 30E0      		ldi r19,hi8(1)
 257               	.L54:
 258               	.LBE7:
 259               	.LBE6:
 260               	.LBB8:
 261               	.LBB9:
 262               	.LM38:
 263 013e 8091 C000 		lds r24,192
 264 0142 9927      		clr r25
 265 0144 9695      		lsr r25
 266 0146 8795      		ror r24
 267 0148 9295      		swap r25
 268 014a 8295      		swap r24
 269 014c 8F70      		andi r24,0x0f
 270 014e 8927      		eor r24,r25
 271 0150 9F70      		andi r25,0x0f
 272 0152 8927      		eor r24,r25
 273 0154 8170      		andi r24,lo8(1)
 274 0156 9070      		andi r25,hi8(1)
 275 0158 8217      		cp r24,r18
 276 015a 9307      		cpc r25,r19
 277 015c 81F7      		brne .L54
 278               	.LBE9:
 279               	.LBE8:
 280               	.LBB10:
 281               	.LBB11:
 282               	.LM39:
 283 015e 80E3      		ldi r24,lo8(48)
 284               	.L363:
 285               	.LBE11:
 286               	.LBE10:
 287               	.LBB12:
 288               	.LBB13:
 289 0160 8093 C600 		sts 198,r24
 290 0164 0895      		ret
 291               	.L226:
 292               	.LBE13:
 293               	.LBE12:
 294               	.LM40:
 295 0166 8B30      		cpi r24,11
 296 0168 9105      		cpc r25,__zero_reg__
 297 016a 09F4      		brne .+2
 298 016c 1DC1      		rjmp .L161
 299 016e 8C30      		cpi r24,12
 300 0170 9105      		cpc r25,__zero_reg__
 301 0172 0CF0      		brlt .+2
 302 0174 09C1      		rjmp .L228
 303 0176 8930      		cpi r24,9
 304 0178 9105      		cpc r25,__zero_reg__
 305 017a 09F4      		brne .+2
 306 017c 57C3      		rjmp .L135
 307 017e 0A97      		sbiw r24,10
 308 0180 0CF0      		brlt .+2
 309 0182 B6C1      		rjmp .L148
 310 0184 21E0      		ldi r18,lo8(1)
 311 0186 30E0      		ldi r19,hi8(1)
 312               	.L123:
 313               	.LBB14:
 314               	.LBB15:
 315               	.LM41:
 316 0188 8091 C000 		lds r24,192
 317 018c 9927      		clr r25
 318 018e 9695      		lsr r25
 319 0190 8795      		ror r24
 320 0192 9295      		swap r25
 321 0194 8295      		swap r24
 322 0196 8F70      		andi r24,0x0f
 323 0198 8927      		eor r24,r25
 324 019a 9F70      		andi r25,0x0f
 325 019c 8927      		eor r24,r25
 326 019e 8170      		andi r24,lo8(1)
 327 01a0 9070      		andi r25,hi8(1)
 328 01a2 8217      		cp r24,r18
 329 01a4 9307      		cpc r25,r19
 330 01a6 81F7      		brne .L123
 331               	.LM42:
 332 01a8 81E3      		ldi r24,lo8(49)
 333 01aa 8093 C600 		sts 198,r24
 334 01ae 21E0      		ldi r18,lo8(1)
 335 01b0 30E0      		ldi r19,hi8(1)
 336               	.L126:
 337               	.LBE15:
 338               	.LBE14:
 339               	.LBB16:
 340               	.LBB17:
 341               	.LM43:
 342 01b2 8091 C000 		lds r24,192
 343 01b6 9927      		clr r25
 344 01b8 9695      		lsr r25
 345 01ba 8795      		ror r24
 346 01bc 9295      		swap r25
 347 01be 8295      		swap r24
 348 01c0 8F70      		andi r24,0x0f
 349 01c2 8927      		eor r24,r25
 350 01c4 9F70      		andi r25,0x0f
 351 01c6 8927      		eor r24,r25
 352 01c8 8170      		andi r24,lo8(1)
 353 01ca 9070      		andi r25,hi8(1)
 354 01cc 8217      		cp r24,r18
 355 01ce 9307      		cpc r25,r19
 356 01d0 81F7      		brne .L126
 357               	.LM44:
 358 01d2 20E3      		ldi r18,lo8(48)
 359 01d4 2093 C600 		sts 198,r18
 360 01d8 21E0      		ldi r18,lo8(1)
 361 01da 30E0      		ldi r19,hi8(1)
 362               	.L129:
 363               	.LBE17:
 364               	.LBE16:
 365               	.LBB18:
 366               	.LBB19:
 367               	.LM45:
 368 01dc 8091 C000 		lds r24,192
 369 01e0 9927      		clr r25
 370 01e2 9695      		lsr r25
 371 01e4 8795      		ror r24
 372 01e6 9295      		swap r25
 373 01e8 8295      		swap r24
 374 01ea 8F70      		andi r24,0x0f
 375 01ec 8927      		eor r24,r25
 376 01ee 9F70      		andi r25,0x0f
 377 01f0 8927      		eor r24,r25
 378 01f2 8170      		andi r24,lo8(1)
 379 01f4 9070      		andi r25,hi8(1)
 380 01f6 8217      		cp r24,r18
 381 01f8 9307      		cpc r25,r19
 382 01fa 81F7      		brne .L129
 383               	.LM46:
 384 01fc 30E3      		ldi r19,lo8(48)
 385 01fe 3093 C600 		sts 198,r19
 386 0202 21E0      		ldi r18,lo8(1)
 387 0204 30E0      		ldi r19,hi8(1)
 388               	.L132:
 389               	.LBE19:
 390               	.LBE18:
 391               	.LBB20:
 392               	.LBB21:
 393               	.LM47:
 394 0206 8091 C000 		lds r24,192
 395 020a 9927      		clr r25
 396 020c 9695      		lsr r25
 397 020e 8795      		ror r24
 398 0210 9295      		swap r25
 399 0212 8295      		swap r24
 400 0214 8F70      		andi r24,0x0f
 401 0216 8927      		eor r24,r25
 402 0218 9F70      		andi r25,0x0f
 403 021a 8927      		eor r24,r25
 404 021c 8170      		andi r24,lo8(1)
 405 021e 9070      		andi r25,hi8(1)
 406 0220 8217      		cp r24,r18
 407 0222 9307      		cpc r25,r19
 408 0224 81F7      		brne .L132
 409               	.LBE21:
 410               	.LBE20:
 411               	.LBB22:
 412               	.LBB23:
 413               	.LM48:
 414 0226 80E3      		ldi r24,lo8(48)
 415 0228 9BCF      		rjmp .L363
 416               	.L109:
 417 022a 21E0      		ldi r18,lo8(1)
 418 022c 30E0      		ldi r19,hi8(1)
 419               	.L110:
 420               	.LBE23:
 421               	.LBE22:
 422               	.LBB24:
 423               	.LBB25:
 424               	.LM49:
 425 022e 8091 C000 		lds r24,192
 426 0232 9927      		clr r25
 427 0234 9695      		lsr r25
 428 0236 8795      		ror r24
 429 0238 9295      		swap r25
 430 023a 8295      		swap r24
 431 023c 8F70      		andi r24,0x0f
 432 023e 8927      		eor r24,r25
 433 0240 9F70      		andi r25,0x0f
 434 0242 8927      		eor r24,r25
 435 0244 8170      		andi r24,lo8(1)
 436 0246 9070      		andi r25,hi8(1)
 437 0248 8217      		cp r24,r18
 438 024a 9307      		cpc r25,r19
 439 024c 81F7      		brne .L110
 440               	.LM50:
 441 024e B0E3      		ldi r27,lo8(48)
 442 0250 B093 C600 		sts 198,r27
 443 0254 21E0      		ldi r18,lo8(1)
 444 0256 30E0      		ldi r19,hi8(1)
 445               	.L113:
 446               	.LBE25:
 447               	.LBE24:
 448               	.LBB26:
 449               	.LBB27:
 450               	.LM51:
 451 0258 8091 C000 		lds r24,192
 452 025c 9927      		clr r25
 453 025e 9695      		lsr r25
 454 0260 8795      		ror r24
 455 0262 9295      		swap r25
 456 0264 8295      		swap r24
 457 0266 8F70      		andi r24,0x0f
 458 0268 8927      		eor r24,r25
 459 026a 9F70      		andi r25,0x0f
 460 026c 8927      		eor r24,r25
 461 026e 8170      		andi r24,lo8(1)
 462 0270 9070      		andi r25,hi8(1)
 463 0272 8217      		cp r24,r18
 464 0274 9307      		cpc r25,r19
 465 0276 81F7      		brne .L113
 466               	.LM52:
 467 0278 E1E3      		ldi r30,lo8(49)
 468 027a E093 C600 		sts 198,r30
 469 027e 21E0      		ldi r18,lo8(1)
 470 0280 30E0      		ldi r19,hi8(1)
 471               	.L116:
 472               	.LBE27:
 473               	.LBE26:
 474               	.LBB28:
 475               	.LBB29:
 476               	.LM53:
 477 0282 8091 C000 		lds r24,192
 478 0286 9927      		clr r25
 479 0288 9695      		lsr r25
 480 028a 8795      		ror r24
 481 028c 9295      		swap r25
 482 028e 8295      		swap r24
 483 0290 8F70      		andi r24,0x0f
 484 0292 8927      		eor r24,r25
 485 0294 9F70      		andi r25,0x0f
 486 0296 8927      		eor r24,r25
 487 0298 8170      		andi r24,lo8(1)
 488 029a 9070      		andi r25,hi8(1)
 489 029c 8217      		cp r24,r18
 490 029e 9307      		cpc r25,r19
 491 02a0 81F7      		brne .L116
 492               	.LM54:
 493 02a2 F1E3      		ldi r31,lo8(49)
 494 02a4 F093 C600 		sts 198,r31
 495 02a8 21E0      		ldi r18,lo8(1)
 496 02aa 30E0      		ldi r19,hi8(1)
 497               	.L119:
 498               	.LBE29:
 499               	.LBE28:
 500               	.LBB30:
 501               	.LBB31:
 502               	.LM55:
 503 02ac 8091 C000 		lds r24,192
 504 02b0 9927      		clr r25
 505 02b2 9695      		lsr r25
 506 02b4 8795      		ror r24
 507 02b6 9295      		swap r25
 508 02b8 8295      		swap r24
 509 02ba 8F70      		andi r24,0x0f
 510 02bc 8927      		eor r24,r25
 511 02be 9F70      		andi r25,0x0f
 512 02c0 8927      		eor r24,r25
 513 02c2 8170      		andi r24,lo8(1)
 514 02c4 9070      		andi r25,hi8(1)
 515 02c6 8217      		cp r24,r18
 516 02c8 9307      		cpc r25,r19
 517 02ca 81F7      		brne .L119
 518               	.L360:
 519               	.LBE31:
 520               	.LBE30:
 521               	.LBB32:
 522               	.LBB33:
 523               	.LM56:
 524 02cc 81E3      		ldi r24,lo8(49)
 525 02ce 8093 C600 		sts 198,r24
 526 02d2 0895      		ret
 527               	.L227:
 528               	.LBE33:
 529               	.LBE32:
 530               	.LM57:
 531 02d4 8530      		cpi r24,5
 532 02d6 9105      		cpc r25,__zero_reg__
 533 02d8 09F4      		brne .+2
 534 02da FAC2      		rjmp .L83
 535 02dc 0697      		sbiw r24,6
 536 02de 0CF0      		brlt .+2
 537 02e0 ADC1      		rjmp .L96
 538 02e2 21E0      		ldi r18,lo8(1)
 539 02e4 30E0      		ldi r19,hi8(1)
 540               	.L71:
 541               	.LBB34:
 542               	.LBB35:
 543               	.LM58:
 544 02e6 8091 C000 		lds r24,192
 545 02ea 9927      		clr r25
 546 02ec 9695      		lsr r25
 547 02ee 8795      		ror r24
 548 02f0 9295      		swap r25
 549 02f2 8295      		swap r24
 550 02f4 8F70      		andi r24,0x0f
 551 02f6 8927      		eor r24,r25
 552 02f8 9F70      		andi r25,0x0f
 553 02fa 8927      		eor r24,r25
 554 02fc 8170      		andi r24,lo8(1)
 555 02fe 9070      		andi r25,hi8(1)
 556 0300 8217      		cp r24,r18
 557 0302 9307      		cpc r25,r19
 558 0304 81F7      		brne .L71
 559               	.LM59:
 560 0306 80E3      		ldi r24,lo8(48)
 561 0308 8093 C600 		sts 198,r24
 562 030c 21E0      		ldi r18,lo8(1)
 563 030e 30E0      		ldi r19,hi8(1)
 564               	.L74:
 565               	.LBE35:
 566               	.LBE34:
 567               	.LBB36:
 568               	.LBB37:
 569               	.LM60:
 570 0310 8091 C000 		lds r24,192
 571 0314 9927      		clr r25
 572 0316 9695      		lsr r25
 573 0318 8795      		ror r24
 574 031a 9295      		swap r25
 575 031c 8295      		swap r24
 576 031e 8F70      		andi r24,0x0f
 577 0320 8927      		eor r24,r25
 578 0322 9F70      		andi r25,0x0f
 579 0324 8927      		eor r24,r25
 580 0326 8170      		andi r24,lo8(1)
 581 0328 9070      		andi r25,hi8(1)
 582 032a 8217      		cp r24,r18
 583 032c 9307      		cpc r25,r19
 584 032e 81F7      		brne .L74
 585               	.LM61:
 586 0330 21E3      		ldi r18,lo8(49)
 587 0332 2093 C600 		sts 198,r18
 588 0336 21E0      		ldi r18,lo8(1)
 589 0338 30E0      		ldi r19,hi8(1)
 590               	.L77:
 591               	.LBE37:
 592               	.LBE36:
 593               	.LBB38:
 594               	.LBB39:
 595               	.LM62:
 596 033a 8091 C000 		lds r24,192
 597 033e 9927      		clr r25
 598 0340 9695      		lsr r25
 599 0342 8795      		ror r24
 600 0344 9295      		swap r25
 601 0346 8295      		swap r24
 602 0348 8F70      		andi r24,0x0f
 603 034a 8927      		eor r24,r25
 604 034c 9F70      		andi r25,0x0f
 605 034e 8927      		eor r24,r25
 606 0350 8170      		andi r24,lo8(1)
 607 0352 9070      		andi r25,hi8(1)
 608 0354 8217      		cp r24,r18
 609 0356 9307      		cpc r25,r19
 610 0358 81F7      		brne .L77
 611               	.LM63:
 612 035a 30E3      		ldi r19,lo8(48)
 613 035c 3093 C600 		sts 198,r19
 614 0360 21E0      		ldi r18,lo8(1)
 615 0362 30E0      		ldi r19,hi8(1)
 616               	.L80:
 617               	.LBE39:
 618               	.LBE38:
 619               	.LBB40:
 620               	.LBB41:
 621               	.LM64:
 622 0364 8091 C000 		lds r24,192
 623 0368 9927      		clr r25
 624 036a 9695      		lsr r25
 625 036c 8795      		ror r24
 626 036e 9295      		swap r25
 627 0370 8295      		swap r24
 628 0372 8F70      		andi r24,0x0f
 629 0374 8927      		eor r24,r25
 630 0376 9F70      		andi r25,0x0f
 631 0378 8927      		eor r24,r25
 632 037a 8170      		andi r24,lo8(1)
 633 037c 9070      		andi r25,hi8(1)
 634 037e 8217      		cp r24,r18
 635 0380 9307      		cpc r25,r19
 636 0382 81F7      		brne .L80
 637               	.LBE41:
 638               	.LBE40:
 639               	.LBB42:
 640               	.LBB43:
 641               	.LM65:
 642 0384 80E3      		ldi r24,lo8(48)
 643 0386 ECCE      		rjmp .L363
 644               	.L228:
 645               	.LBE43:
 646               	.LBE42:
 647               	.LM66:
 648 0388 8D30      		cpi r24,13
 649 038a 9105      		cpc r25,__zero_reg__
 650 038c 09F4      		brne .+2
 651 038e F2C2      		rjmp .L187
 652 0390 8D30      		cpi r24,13
 653 0392 9105      		cpc r25,__zero_reg__
 654 0394 0CF4      		brge .+2
 655 0396 FFC0      		rjmp .L174
 656 0398 8E30      		cpi r24,14
 657 039a 9105      		cpc r25,__zero_reg__
 658 039c 09F4      		brne .+2
 659 039e 40C3      		rjmp .L200
 660 03a0 0F97      		sbiw r24,15
 661 03a2 09F4      		brne .+2
 662 03a4 9EC1      		rjmp .L364
 663 03a6 0895      		ret
 664               	.L161:
 665 03a8 21E0      		ldi r18,lo8(1)
 666 03aa 30E0      		ldi r19,hi8(1)
 667               	.L162:
 668               	.LBB44:
 669               	.LBB45:
 670               	.LM67:
 671 03ac 8091 C000 		lds r24,192
 672 03b0 9927      		clr r25
 673 03b2 9695      		lsr r25
 674 03b4 8795      		ror r24
 675 03b6 9295      		swap r25
 676 03b8 8295      		swap r24
 677 03ba 8F70      		andi r24,0x0f
 678 03bc 8927      		eor r24,r25
 679 03be 9F70      		andi r25,0x0f
 680 03c0 8927      		eor r24,r25
 681 03c2 8170      		andi r24,lo8(1)
 682 03c4 9070      		andi r25,hi8(1)
 683 03c6 8217      		cp r24,r18
 684 03c8 9307      		cpc r25,r19
 685 03ca 81F7      		brne .L162
 686               	.LM68:
 687 03cc B1E3      		ldi r27,lo8(49)
 688 03ce B093 C600 		sts 198,r27
 689 03d2 21E0      		ldi r18,lo8(1)
 690 03d4 30E0      		ldi r19,hi8(1)
 691               	.L165:
 692               	.LBE45:
 693               	.LBE44:
 694               	.LBB46:
 695               	.LBB47:
 696               	.LM69:
 697 03d6 8091 C000 		lds r24,192
 698 03da 9927      		clr r25
 699 03dc 9695      		lsr r25
 700 03de 8795      		ror r24
 701 03e0 9295      		swap r25
 702 03e2 8295      		swap r24
 703 03e4 8F70      		andi r24,0x0f
 704 03e6 8927      		eor r24,r25
 705 03e8 9F70      		andi r25,0x0f
 706 03ea 8927      		eor r24,r25
 707 03ec 8170      		andi r24,lo8(1)
 708 03ee 9070      		andi r25,hi8(1)
 709 03f0 8217      		cp r24,r18
 710 03f2 9307      		cpc r25,r19
 711 03f4 81F7      		brne .L165
 712               	.LM70:
 713 03f6 E0E3      		ldi r30,lo8(48)
 714 03f8 E093 C600 		sts 198,r30
 715 03fc 21E0      		ldi r18,lo8(1)
 716 03fe 30E0      		ldi r19,hi8(1)
 717               	.L168:
 718               	.LBE47:
 719               	.LBE46:
 720               	.LBB48:
 721               	.LBB49:
 722               	.LM71:
 723 0400 8091 C000 		lds r24,192
 724 0404 9927      		clr r25
 725 0406 9695      		lsr r25
 726 0408 8795      		ror r24
 727 040a 9295      		swap r25
 728 040c 8295      		swap r24
 729 040e 8F70      		andi r24,0x0f
 730 0410 8927      		eor r24,r25
 731 0412 9F70      		andi r25,0x0f
 732 0414 8927      		eor r24,r25
 733 0416 8170      		andi r24,lo8(1)
 734 0418 9070      		andi r25,hi8(1)
 735 041a 8217      		cp r24,r18
 736 041c 9307      		cpc r25,r19
 737 041e 81F7      		brne .L168
 738               	.LM72:
 739 0420 F1E3      		ldi r31,lo8(49)
 740 0422 F093 C600 		sts 198,r31
 741 0426 21E0      		ldi r18,lo8(1)
 742 0428 30E0      		ldi r19,hi8(1)
 743               	.L171:
 744               	.LBE49:
 745               	.LBE48:
 746               	.LBB50:
 747               	.LBB51:
 748               	.LM73:
 749 042a 8091 C000 		lds r24,192
 750 042e 9927      		clr r25
 751 0430 9695      		lsr r25
 752 0432 8795      		ror r24
 753 0434 9295      		swap r25
 754 0436 8295      		swap r24
 755 0438 8F70      		andi r24,0x0f
 756 043a 8927      		eor r24,r25
 757 043c 9F70      		andi r25,0x0f
 758 043e 8927      		eor r24,r25
 759 0440 8170      		andi r24,lo8(1)
 760 0442 9070      		andi r25,hi8(1)
 761 0444 8217      		cp r24,r18
 762 0446 9307      		cpc r25,r19
 763 0448 81F7      		brne .L171
 764 044a 40CF      		rjmp .L360
 765               	.L57:
 766 044c 21E0      		ldi r18,lo8(1)
 767 044e 30E0      		ldi r19,hi8(1)
 768               	.L58:
 769               	.LBE51:
 770               	.LBE50:
 771               	.LBB52:
 772               	.LBB53:
 773 0450 8091 C000 		lds r24,192
 774 0454 9927      		clr r25
 775 0456 9695      		lsr r25
 776 0458 8795      		ror r24
 777 045a 9295      		swap r25
 778 045c 8295      		swap r24
 779 045e 8F70      		andi r24,0x0f
 780 0460 8927      		eor r24,r25
 781 0462 9F70      		andi r25,0x0f
 782 0464 8927      		eor r24,r25
 783 0466 8170      		andi r24,lo8(1)
 784 0468 9070      		andi r25,hi8(1)
 785 046a 8217      		cp r24,r18
 786 046c 9307      		cpc r25,r19
 787 046e 81F7      		brne .L58
 788               	.LM74:
 789 0470 B0E3      		ldi r27,lo8(48)
 790 0472 B093 C600 		sts 198,r27
 791 0476 21E0      		ldi r18,lo8(1)
 792 0478 30E0      		ldi r19,hi8(1)
 793               	.L61:
 794               	.LBE53:
 795               	.LBE52:
 796               	.LBB54:
 797               	.LBB55:
 798               	.LM75:
 799 047a 8091 C000 		lds r24,192
 800 047e 9927      		clr r25
 801 0480 9695      		lsr r25
 802 0482 8795      		ror r24
 803 0484 9295      		swap r25
 804 0486 8295      		swap r24
 805 0488 8F70      		andi r24,0x0f
 806 048a 8927      		eor r24,r25
 807 048c 9F70      		andi r25,0x0f
 808 048e 8927      		eor r24,r25
 809 0490 8170      		andi r24,lo8(1)
 810 0492 9070      		andi r25,hi8(1)
 811 0494 8217      		cp r24,r18
 812 0496 9307      		cpc r25,r19
 813 0498 81F7      		brne .L61
 814               	.LM76:
 815 049a E0E3      		ldi r30,lo8(48)
 816 049c E093 C600 		sts 198,r30
 817 04a0 21E0      		ldi r18,lo8(1)
 818 04a2 30E0      		ldi r19,hi8(1)
 819               	.L64:
 820               	.LBE55:
 821               	.LBE54:
 822               	.LBB56:
 823               	.LBB57:
 824               	.LM77:
 825 04a4 8091 C000 		lds r24,192
 826 04a8 9927      		clr r25
 827 04aa 9695      		lsr r25
 828 04ac 8795      		ror r24
 829 04ae 9295      		swap r25
 830 04b0 8295      		swap r24
 831 04b2 8F70      		andi r24,0x0f
 832 04b4 8927      		eor r24,r25
 833 04b6 9F70      		andi r25,0x0f
 834 04b8 8927      		eor r24,r25
 835 04ba 8170      		andi r24,lo8(1)
 836 04bc 9070      		andi r25,hi8(1)
 837 04be 8217      		cp r24,r18
 838 04c0 9307      		cpc r25,r19
 839 04c2 81F7      		brne .L64
 840               	.LM78:
 841 04c4 F1E3      		ldi r31,lo8(49)
 842 04c6 F093 C600 		sts 198,r31
 843 04ca 21E0      		ldi r18,lo8(1)
 844 04cc 30E0      		ldi r19,hi8(1)
 845               	.L67:
 846               	.LBE57:
 847               	.LBE56:
 848               	.LBB58:
 849               	.LBB59:
 850               	.LM79:
 851 04ce 8091 C000 		lds r24,192
 852 04d2 9927      		clr r25
 853 04d4 9695      		lsr r25
 854 04d6 8795      		ror r24
 855 04d8 9295      		swap r25
 856 04da 8295      		swap r24
 857 04dc 8F70      		andi r24,0x0f
 858 04de 8927      		eor r24,r25
 859 04e0 9F70      		andi r25,0x0f
 860 04e2 8927      		eor r24,r25
 861 04e4 8170      		andi r24,lo8(1)
 862 04e6 9070      		andi r25,hi8(1)
 863 04e8 8217      		cp r24,r18
 864 04ea 9307      		cpc r25,r19
 865 04ec 81F7      		brne .L67
 866 04ee EECE      		rjmp .L360
 867               	.L148:
 868 04f0 21E0      		ldi r18,lo8(1)
 869 04f2 30E0      		ldi r19,hi8(1)
 870               	.L149:
 871               	.LBE59:
 872               	.LBE58:
 873               	.LBB60:
 874               	.LBB61:
 875 04f4 8091 C000 		lds r24,192
 876 04f8 9927      		clr r25
 877 04fa 9695      		lsr r25
 878 04fc 8795      		ror r24
 879 04fe 9295      		swap r25
 880 0500 8295      		swap r24
 881 0502 8F70      		andi r24,0x0f
 882 0504 8927      		eor r24,r25
 883 0506 9F70      		andi r25,0x0f
 884 0508 8927      		eor r24,r25
 885 050a 8170      		andi r24,lo8(1)
 886 050c 9070      		andi r25,hi8(1)
 887 050e 8217      		cp r24,r18
 888 0510 9307      		cpc r25,r19
 889 0512 81F7      		brne .L149
 890               	.LM80:
 891 0514 71E3      		ldi r23,lo8(49)
 892 0516 7093 C600 		sts 198,r23
 893 051a 21E0      		ldi r18,lo8(1)
 894 051c 30E0      		ldi r19,hi8(1)
 895               	.L152:
 896               	.LBE61:
 897               	.LBE60:
 898               	.LBB62:
 899               	.LBB63:
 900               	.LM81:
 901 051e 8091 C000 		lds r24,192
 902 0522 9927      		clr r25
 903 0524 9695      		lsr r25
 904 0526 8795      		ror r24
 905 0528 9295      		swap r25
 906 052a 8295      		swap r24
 907 052c 8F70      		andi r24,0x0f
 908 052e 8927      		eor r24,r25
 909 0530 9F70      		andi r25,0x0f
 910 0532 8927      		eor r24,r25
 911 0534 8170      		andi r24,lo8(1)
 912 0536 9070      		andi r25,hi8(1)
 913 0538 8217      		cp r24,r18
 914 053a 9307      		cpc r25,r19
 915 053c 81F7      		brne .L152
 916               	.LM82:
 917 053e 90E3      		ldi r25,lo8(48)
 918 0540 9093 C600 		sts 198,r25
 919 0544 21E0      		ldi r18,lo8(1)
 920 0546 30E0      		ldi r19,hi8(1)
 921               	.L155:
 922               	.LBE63:
 923               	.LBE62:
 924               	.LBB64:
 925               	.LBB65:
 926               	.LM83:
 927 0548 8091 C000 		lds r24,192
 928 054c 9927      		clr r25
 929 054e 9695      		lsr r25
 930 0550 8795      		ror r24
 931 0552 9295      		swap r25
 932 0554 8295      		swap r24
 933 0556 8F70      		andi r24,0x0f
 934 0558 8927      		eor r24,r25
 935 055a 9F70      		andi r25,0x0f
 936 055c 8927      		eor r24,r25
 937 055e 8170      		andi r24,lo8(1)
 938 0560 9070      		andi r25,hi8(1)
 939 0562 8217      		cp r24,r18
 940 0564 9307      		cpc r25,r19
 941 0566 81F7      		brne .L155
 942               	.LM84:
 943 0568 A1E3      		ldi r26,lo8(49)
 944 056a A093 C600 		sts 198,r26
 945 056e 21E0      		ldi r18,lo8(1)
 946 0570 30E0      		ldi r19,hi8(1)
 947               	.L158:
 948               	.LBE65:
 949               	.LBE64:
 950               	.LBB66:
 951               	.LBB67:
 952               	.LM85:
 953 0572 8091 C000 		lds r24,192
 954 0576 9927      		clr r25
 955 0578 9695      		lsr r25
 956 057a 8795      		ror r24
 957 057c 9295      		swap r25
 958 057e 8295      		swap r24
 959 0580 8F70      		andi r24,0x0f
 960 0582 8927      		eor r24,r25
 961 0584 9F70      		andi r25,0x0f
 962 0586 8927      		eor r24,r25
 963 0588 8170      		andi r24,lo8(1)
 964 058a 9070      		andi r25,hi8(1)
 965 058c 8217      		cp r24,r18
 966 058e 9307      		cpc r25,r19
 967 0590 81F7      		brne .L158
 968               	.LBE67:
 969               	.LBE66:
 970               	.LBB68:
 971               	.LBB69:
 972               	.LM86:
 973 0592 80E3      		ldi r24,lo8(48)
 974 0594 E5CD      		rjmp .L363
 975               	.L174:
 976 0596 21E0      		ldi r18,lo8(1)
 977 0598 30E0      		ldi r19,hi8(1)
 978               	.L175:
 979               	.LBE69:
 980               	.LBE68:
 981               	.LBB70:
 982               	.LBB71:
 983               	.LM87:
 984 059a 8091 C000 		lds r24,192
 985 059e 9927      		clr r25
 986 05a0 9695      		lsr r25
 987 05a2 8795      		ror r24
 988 05a4 9295      		swap r25
 989 05a6 8295      		swap r24
 990 05a8 8F70      		andi r24,0x0f
 991 05aa 8927      		eor r24,r25
 992 05ac 9F70      		andi r25,0x0f
 993 05ae 8927      		eor r24,r25
 994 05b0 8170      		andi r24,lo8(1)
 995 05b2 9070      		andi r25,hi8(1)
 996 05b4 8217      		cp r24,r18
 997 05b6 9307      		cpc r25,r19
 998 05b8 81F7      		brne .L175
 999               	.LM88:
 1000 05ba 81E3      		ldi r24,lo8(49)
 1001 05bc 8093 C600 		sts 198,r24
 1002 05c0 21E0      		ldi r18,lo8(1)
 1003 05c2 30E0      		ldi r19,hi8(1)
 1004               	.L178:
 1005               	.LBE71:
 1006               	.LBE70:
 1007               	.LBB72:
 1008               	.LBB73:
 1009               	.LM89:
 1010 05c4 8091 C000 		lds r24,192
 1011 05c8 9927      		clr r25
 1012 05ca 9695      		lsr r25
 1013 05cc 8795      		ror r24
 1014 05ce 9295      		swap r25
 1015 05d0 8295      		swap r24
 1016 05d2 8F70      		andi r24,0x0f
 1017 05d4 8927      		eor r24,r25
 1018 05d6 9F70      		andi r25,0x0f
 1019 05d8 8927      		eor r24,r25
 1020 05da 8170      		andi r24,lo8(1)
 1021 05dc 9070      		andi r25,hi8(1)
 1022 05de 8217      		cp r24,r18
 1023 05e0 9307      		cpc r25,r19
 1024 05e2 81F7      		brne .L178
 1025               	.LM90:
 1026 05e4 21E3      		ldi r18,lo8(49)
 1027 05e6 2093 C600 		sts 198,r18
 1028 05ea 21E0      		ldi r18,lo8(1)
 1029 05ec 30E0      		ldi r19,hi8(1)
 1030               	.L181:
 1031               	.LBE73:
 1032               	.LBE72:
 1033               	.LBB74:
 1034               	.LBB75:
 1035               	.LM91:
 1036 05ee 8091 C000 		lds r24,192
 1037 05f2 9927      		clr r25
 1038 05f4 9695      		lsr r25
 1039 05f6 8795      		ror r24
 1040 05f8 9295      		swap r25
 1041 05fa 8295      		swap r24
 1042 05fc 8F70      		andi r24,0x0f
 1043 05fe 8927      		eor r24,r25
 1044 0600 9F70      		andi r25,0x0f
 1045 0602 8927      		eor r24,r25
 1046 0604 8170      		andi r24,lo8(1)
 1047 0606 9070      		andi r25,hi8(1)
 1048 0608 8217      		cp r24,r18
 1049 060a 9307      		cpc r25,r19
 1050 060c 81F7      		brne .L181
 1051               	.LM92:
 1052 060e 30E3      		ldi r19,lo8(48)
 1053 0610 3093 C600 		sts 198,r19
 1054 0614 21E0      		ldi r18,lo8(1)
 1055 0616 30E0      		ldi r19,hi8(1)
 1056               	.L184:
 1057               	.LBE75:
 1058               	.LBE74:
 1059               	.LBB76:
 1060               	.LBB77:
 1061               	.LM93:
 1062 0618 8091 C000 		lds r24,192
 1063 061c 9927      		clr r25
 1064 061e 9695      		lsr r25
 1065 0620 8795      		ror r24
 1066 0622 9295      		swap r25
 1067 0624 8295      		swap r24
 1068 0626 8F70      		andi r24,0x0f
 1069 0628 8927      		eor r24,r25
 1070 062a 9F70      		andi r25,0x0f
 1071 062c 8927      		eor r24,r25
 1072 062e 8170      		andi r24,lo8(1)
 1073 0630 9070      		andi r25,hi8(1)
 1074 0632 8217      		cp r24,r18
 1075 0634 9307      		cpc r25,r19
 1076 0636 81F7      		brne .L184
 1077               	.LBE77:
 1078               	.LBE76:
 1079               	.LBB78:
 1080               	.LBB79:
 1081               	.LM94:
 1082 0638 80E3      		ldi r24,lo8(48)
 1083 063a 92CD      		rjmp .L363
 1084               	.L96:
 1085 063c 21E0      		ldi r18,lo8(1)
 1086 063e 30E0      		ldi r19,hi8(1)
 1087               	.L97:
 1088               	.LBE79:
 1089               	.LBE78:
 1090               	.LBB80:
 1091               	.LBB81:
 1092               	.LM95:
 1093 0640 8091 C000 		lds r24,192
 1094 0644 9927      		clr r25
 1095 0646 9695      		lsr r25
 1096 0648 8795      		ror r24
 1097 064a 9295      		swap r25
 1098 064c 8295      		swap r24
 1099 064e 8F70      		andi r24,0x0f
 1100 0650 8927      		eor r24,r25
 1101 0652 9F70      		andi r25,0x0f
 1102 0654 8927      		eor r24,r25
 1103 0656 8170      		andi r24,lo8(1)
 1104 0658 9070      		andi r25,hi8(1)
 1105 065a 8217      		cp r24,r18
 1106 065c 9307      		cpc r25,r19
 1107 065e 81F7      		brne .L97
 1108               	.LM96:
 1109 0660 70E3      		ldi r23,lo8(48)
 1110 0662 7093 C600 		sts 198,r23
 1111 0666 21E0      		ldi r18,lo8(1)
 1112 0668 30E0      		ldi r19,hi8(1)
 1113               	.L100:
 1114               	.LBE81:
 1115               	.LBE80:
 1116               	.LBB82:
 1117               	.LBB83:
 1118               	.LM97:
 1119 066a 8091 C000 		lds r24,192
 1120 066e 9927      		clr r25
 1121 0670 9695      		lsr r25
 1122 0672 8795      		ror r24
 1123 0674 9295      		swap r25
 1124 0676 8295      		swap r24
 1125 0678 8F70      		andi r24,0x0f
 1126 067a 8927      		eor r24,r25
 1127 067c 9F70      		andi r25,0x0f
 1128 067e 8927      		eor r24,r25
 1129 0680 8170      		andi r24,lo8(1)
 1130 0682 9070      		andi r25,hi8(1)
 1131 0684 8217      		cp r24,r18
 1132 0686 9307      		cpc r25,r19
 1133 0688 81F7      		brne .L100
 1134               	.LM98:
 1135 068a 91E3      		ldi r25,lo8(49)
 1136 068c 9093 C600 		sts 198,r25
 1137 0690 21E0      		ldi r18,lo8(1)
 1138 0692 30E0      		ldi r19,hi8(1)
 1139               	.L103:
 1140               	.LBE83:
 1141               	.LBE82:
 1142               	.LBB84:
 1143               	.LBB85:
 1144               	.LM99:
 1145 0694 8091 C000 		lds r24,192
 1146 0698 9927      		clr r25
 1147 069a 9695      		lsr r25
 1148 069c 8795      		ror r24
 1149 069e 9295      		swap r25
 1150 06a0 8295      		swap r24
 1151 06a2 8F70      		andi r24,0x0f
 1152 06a4 8927      		eor r24,r25
 1153 06a6 9F70      		andi r25,0x0f
 1154 06a8 8927      		eor r24,r25
 1155 06aa 8170      		andi r24,lo8(1)
 1156 06ac 9070      		andi r25,hi8(1)
 1157 06ae 8217      		cp r24,r18
 1158 06b0 9307      		cpc r25,r19
 1159 06b2 81F7      		brne .L103
 1160               	.LM100:
 1161 06b4 A1E3      		ldi r26,lo8(49)
 1162 06b6 A093 C600 		sts 198,r26
 1163 06ba 21E0      		ldi r18,lo8(1)
 1164 06bc 30E0      		ldi r19,hi8(1)
 1165               	.L106:
 1166               	.LBE85:
 1167               	.LBE84:
 1168               	.LBB86:
 1169               	.LBB87:
 1170               	.LM101:
 1171 06be 8091 C000 		lds r24,192
 1172 06c2 9927      		clr r25
 1173 06c4 9695      		lsr r25
 1174 06c6 8795      		ror r24
 1175 06c8 9295      		swap r25
 1176 06ca 8295      		swap r24
 1177 06cc 8F70      		andi r24,0x0f
 1178 06ce 8927      		eor r24,r25
 1179 06d0 9F70      		andi r25,0x0f
 1180 06d2 8927      		eor r24,r25
 1181 06d4 8170      		andi r24,lo8(1)
 1182 06d6 9070      		andi r25,hi8(1)
 1183 06d8 8217      		cp r24,r18
 1184 06da 9307      		cpc r25,r19
 1185 06dc 81F7      		brne .L106
 1186               	.LBE87:
 1187               	.LBE86:
 1188               	.LBB88:
 1189               	.LBB89:
 1190               	.LM102:
 1191 06de 80E3      		ldi r24,lo8(48)
 1192 06e0 3FCD      		rjmp .L363
 1193               	.L364:
 1194 06e2 21E0      		ldi r18,lo8(1)
 1195 06e4 30E0      		ldi r19,hi8(1)
 1196               	.L214:
 1197               	.LBE89:
 1198               	.LBE88:
 1199               	.LBB90:
 1200               	.LBB91:
 1201               	.LM103:
 1202 06e6 8091 C000 		lds r24,192
 1203 06ea 9927      		clr r25
 1204 06ec 9695      		lsr r25
 1205 06ee 8795      		ror r24
 1206 06f0 9295      		swap r25
 1207 06f2 8295      		swap r24
 1208 06f4 8F70      		andi r24,0x0f
 1209 06f6 8927      		eor r24,r25
 1210 06f8 9F70      		andi r25,0x0f
 1211 06fa 8927      		eor r24,r25
 1212 06fc 8170      		andi r24,lo8(1)
 1213 06fe 9070      		andi r25,hi8(1)
 1214 0700 8217      		cp r24,r18
 1215 0702 9307      		cpc r25,r19
 1216 0704 81F7      		brne .L214
 1217               	.LM104:
 1218 0706 B1E3      		ldi r27,lo8(49)
 1219 0708 B093 C600 		sts 198,r27
 1220 070c 21E0      		ldi r18,lo8(1)
 1221 070e 30E0      		ldi r19,hi8(1)
 1222               	.L217:
 1223               	.LBE91:
 1224               	.LBE90:
 1225               	.LBB92:
 1226               	.LBB93:
 1227               	.LM105:
 1228 0710 8091 C000 		lds r24,192
 1229 0714 9927      		clr r25
 1230 0716 9695      		lsr r25
 1231 0718 8795      		ror r24
 1232 071a 9295      		swap r25
 1233 071c 8295      		swap r24
 1234 071e 8F70      		andi r24,0x0f
 1235 0720 8927      		eor r24,r25
 1236 0722 9F70      		andi r25,0x0f
 1237 0724 8927      		eor r24,r25
 1238 0726 8170      		andi r24,lo8(1)
 1239 0728 9070      		andi r25,hi8(1)
 1240 072a 8217      		cp r24,r18
 1241 072c 9307      		cpc r25,r19
 1242 072e 81F7      		brne .L217
 1243               	.LM106:
 1244 0730 E1E3      		ldi r30,lo8(49)
 1245 0732 E093 C600 		sts 198,r30
 1246 0736 21E0      		ldi r18,lo8(1)
 1247 0738 30E0      		ldi r19,hi8(1)
 1248               	.L220:
 1249               	.LBE93:
 1250               	.LBE92:
 1251               	.LBB94:
 1252               	.LBB95:
 1253               	.LM107:
 1254 073a 8091 C000 		lds r24,192
 1255 073e 9927      		clr r25
 1256 0740 9695      		lsr r25
 1257 0742 8795      		ror r24
 1258 0744 9295      		swap r25
 1259 0746 8295      		swap r24
 1260 0748 8F70      		andi r24,0x0f
 1261 074a 8927      		eor r24,r25
 1262 074c 9F70      		andi r25,0x0f
 1263 074e 8927      		eor r24,r25
 1264 0750 8170      		andi r24,lo8(1)
 1265 0752 9070      		andi r25,hi8(1)
 1266 0754 8217      		cp r24,r18
 1267 0756 9307      		cpc r25,r19
 1268 0758 81F7      		brne .L220
 1269               	.LM108:
 1270 075a F1E3      		ldi r31,lo8(49)
 1271 075c F093 C600 		sts 198,r31
 1272 0760 21E0      		ldi r18,lo8(1)
 1273 0762 30E0      		ldi r19,hi8(1)
 1274               	.L223:
 1275               	.LBE95:
 1276               	.LBE94:
 1277               	.LBB96:
 1278               	.LBB97:
 1279               	.LM109:
 1280 0764 8091 C000 		lds r24,192
 1281 0768 9927      		clr r25
 1282 076a 9695      		lsr r25
 1283 076c 8795      		ror r24
 1284 076e 9295      		swap r25
 1285 0770 8295      		swap r24
 1286 0772 8F70      		andi r24,0x0f
 1287 0774 8927      		eor r24,r25
 1288 0776 9F70      		andi r25,0x0f
 1289 0778 8927      		eor r24,r25
 1290 077a 8170      		andi r24,lo8(1)
 1291 077c 9070      		andi r25,hi8(1)
 1292 077e 8217      		cp r24,r18
 1293 0780 9307      		cpc r25,r19
 1294 0782 81F7      		brne .L223
 1295               	.LM110:
 1296 0784 81E3      		ldi r24,lo8(49)
 1297 0786 8093 C600 		sts 198,r24
 1298 078a 0895      		ret
 1299               	.L31:
 1300 078c 9C01      		movw r18,r24
 1301               	.L32:
 1302               	.LBE97:
 1303               	.LBE96:
 1304               	.LBB98:
 1305               	.LBB99:
 1306               	.LM111:
 1307 078e 8091 C000 		lds r24,192
 1308 0792 9927      		clr r25
 1309 0794 9695      		lsr r25
 1310 0796 8795      		ror r24
 1311 0798 9295      		swap r25
 1312 079a 8295      		swap r24
 1313 079c 8F70      		andi r24,0x0f
 1314 079e 8927      		eor r24,r25
 1315 07a0 9F70      		andi r25,0x0f
 1316 07a2 8927      		eor r24,r25
 1317 07a4 8227      		eor r24,r18
 1318 07a6 9327      		eor r25,r19
 1319 07a8 80FD      		sbrc r24,0
 1320 07aa F1CF      		rjmp .L32
 1321               	.LM112:
 1322 07ac 40E3      		ldi r20,lo8(48)
 1323 07ae 4093 C600 		sts 198,r20
 1324 07b2 21E0      		ldi r18,lo8(1)
 1325 07b4 30E0      		ldi r19,hi8(1)
 1326               	.L35:
 1327               	.LBE99:
 1328               	.LBE98:
 1329               	.LBB100:
 1330               	.LBB101:
 1331               	.LM113:
 1332 07b6 8091 C000 		lds r24,192
 1333 07ba 9927      		clr r25
 1334 07bc 9695      		lsr r25
 1335 07be 8795      		ror r24
 1336 07c0 9295      		swap r25
 1337 07c2 8295      		swap r24
 1338 07c4 8F70      		andi r24,0x0f
 1339 07c6 8927      		eor r24,r25
 1340 07c8 9F70      		andi r25,0x0f
 1341 07ca 8927      		eor r24,r25
 1342 07cc 8170      		andi r24,lo8(1)
 1343 07ce 9070      		andi r25,hi8(1)
 1344 07d0 8217      		cp r24,r18
 1345 07d2 9307      		cpc r25,r19
 1346 07d4 81F7      		brne .L35
 1347               	.LM114:
 1348 07d6 50E3      		ldi r21,lo8(48)
 1349 07d8 5093 C600 		sts 198,r21
 1350 07dc 21E0      		ldi r18,lo8(1)
 1351 07de 30E0      		ldi r19,hi8(1)
 1352               	.L38:
 1353               	.LBE101:
 1354               	.LBE100:
 1355               	.LBB102:
 1356               	.LBB103:
 1357               	.LM115:
 1358 07e0 8091 C000 		lds r24,192
 1359 07e4 9927      		clr r25
 1360 07e6 9695      		lsr r25
 1361 07e8 8795      		ror r24
 1362 07ea 9295      		swap r25
 1363 07ec 8295      		swap r24
 1364 07ee 8F70      		andi r24,0x0f
 1365 07f0 8927      		eor r24,r25
 1366 07f2 9F70      		andi r25,0x0f
 1367 07f4 8927      		eor r24,r25
 1368 07f6 8170      		andi r24,lo8(1)
 1369 07f8 9070      		andi r25,hi8(1)
 1370 07fa 8217      		cp r24,r18
 1371 07fc 9307      		cpc r25,r19
 1372 07fe 81F7      		brne .L38
 1373               	.LM116:
 1374 0800 60E3      		ldi r22,lo8(48)
 1375 0802 6093 C600 		sts 198,r22
 1376 0806 21E0      		ldi r18,lo8(1)
 1377 0808 30E0      		ldi r19,hi8(1)
 1378               	.L41:
 1379               	.LBE103:
 1380               	.LBE102:
 1381               	.LBB104:
 1382               	.LBB105:
 1383               	.LM117:
 1384 080a 8091 C000 		lds r24,192
 1385 080e 9927      		clr r25
 1386 0810 9695      		lsr r25
 1387 0812 8795      		ror r24
 1388 0814 9295      		swap r25
 1389 0816 8295      		swap r24
 1390 0818 8F70      		andi r24,0x0f
 1391 081a 8927      		eor r24,r25
 1392 081c 9F70      		andi r25,0x0f
 1393 081e 8927      		eor r24,r25
 1394 0820 8170      		andi r24,lo8(1)
 1395 0822 9070      		andi r25,hi8(1)
 1396 0824 8217      		cp r24,r18
 1397 0826 9307      		cpc r25,r19
 1398 0828 81F7      		brne .L41
 1399 082a 50CD      		rjmp .L360
 1400               	.L135:
 1401 082c 21E0      		ldi r18,lo8(1)
 1402 082e 30E0      		ldi r19,hi8(1)
 1403               	.L136:
 1404               	.LBE105:
 1405               	.LBE104:
 1406               	.LBB106:
 1407               	.LBB107:
 1408 0830 8091 C000 		lds r24,192
 1409 0834 9927      		clr r25
 1410 0836 9695      		lsr r25
 1411 0838 8795      		ror r24
 1412 083a 9295      		swap r25
 1413 083c 8295      		swap r24
 1414 083e 8F70      		andi r24,0x0f
 1415 0840 8927      		eor r24,r25
 1416 0842 9F70      		andi r25,0x0f
 1417 0844 8927      		eor r24,r25
 1418 0846 8170      		andi r24,lo8(1)
 1419 0848 9070      		andi r25,hi8(1)
 1420 084a 8217      		cp r24,r18
 1421 084c 9307      		cpc r25,r19
 1422 084e 81F7      		brne .L136
 1423               	.LM118:
 1424 0850 41E3      		ldi r20,lo8(49)
 1425 0852 4093 C600 		sts 198,r20
 1426 0856 21E0      		ldi r18,lo8(1)
 1427 0858 30E0      		ldi r19,hi8(1)
 1428               	.L139:
 1429               	.LBE107:
 1430               	.LBE106:
 1431               	.LBB108:
 1432               	.LBB109:
 1433               	.LM119:
 1434 085a 8091 C000 		lds r24,192
 1435 085e 9927      		clr r25
 1436 0860 9695      		lsr r25
 1437 0862 8795      		ror r24
 1438 0864 9295      		swap r25
 1439 0866 8295      		swap r24
 1440 0868 8F70      		andi r24,0x0f
 1441 086a 8927      		eor r24,r25
 1442 086c 9F70      		andi r25,0x0f
 1443 086e 8927      		eor r24,r25
 1444 0870 8170      		andi r24,lo8(1)
 1445 0872 9070      		andi r25,hi8(1)
 1446 0874 8217      		cp r24,r18
 1447 0876 9307      		cpc r25,r19
 1448 0878 81F7      		brne .L139
 1449               	.LM120:
 1450 087a 50E3      		ldi r21,lo8(48)
 1451 087c 5093 C600 		sts 198,r21
 1452 0880 21E0      		ldi r18,lo8(1)
 1453 0882 30E0      		ldi r19,hi8(1)
 1454               	.L142:
 1455               	.LBE109:
 1456               	.LBE108:
 1457               	.LBB110:
 1458               	.LBB111:
 1459               	.LM121:
 1460 0884 8091 C000 		lds r24,192
 1461 0888 9927      		clr r25
 1462 088a 9695      		lsr r25
 1463 088c 8795      		ror r24
 1464 088e 9295      		swap r25
 1465 0890 8295      		swap r24
 1466 0892 8F70      		andi r24,0x0f
 1467 0894 8927      		eor r24,r25
 1468 0896 9F70      		andi r25,0x0f
 1469 0898 8927      		eor r24,r25
 1470 089a 8170      		andi r24,lo8(1)
 1471 089c 9070      		andi r25,hi8(1)
 1472 089e 8217      		cp r24,r18
 1473 08a0 9307      		cpc r25,r19
 1474 08a2 81F7      		brne .L142
 1475               	.LM122:
 1476 08a4 60E3      		ldi r22,lo8(48)
 1477 08a6 6093 C600 		sts 198,r22
 1478 08aa 21E0      		ldi r18,lo8(1)
 1479 08ac 30E0      		ldi r19,hi8(1)
 1480               	.L145:
 1481               	.LBE111:
 1482               	.LBE110:
 1483               	.LBB112:
 1484               	.LBB113:
 1485               	.LM123:
 1486 08ae 8091 C000 		lds r24,192
 1487 08b2 9927      		clr r25
 1488 08b4 9695      		lsr r25
 1489 08b6 8795      		ror r24
 1490 08b8 9295      		swap r25
 1491 08ba 8295      		swap r24
 1492 08bc 8F70      		andi r24,0x0f
 1493 08be 8927      		eor r24,r25
 1494 08c0 9F70      		andi r25,0x0f
 1495 08c2 8927      		eor r24,r25
 1496 08c4 8170      		andi r24,lo8(1)
 1497 08c6 9070      		andi r25,hi8(1)
 1498 08c8 8217      		cp r24,r18
 1499 08ca 9307      		cpc r25,r19
 1500 08cc 81F7      		brne .L145
 1501 08ce FECC      		rjmp .L360
 1502               	.L83:
 1503 08d0 21E0      		ldi r18,lo8(1)
 1504 08d2 30E0      		ldi r19,hi8(1)
 1505               	.L84:
 1506               	.LBE113:
 1507               	.LBE112:
 1508               	.LBB114:
 1509               	.LBB115:
 1510 08d4 8091 C000 		lds r24,192
 1511 08d8 9927      		clr r25
 1512 08da 9695      		lsr r25
 1513 08dc 8795      		ror r24
 1514 08de 9295      		swap r25
 1515 08e0 8295      		swap r24
 1516 08e2 8F70      		andi r24,0x0f
 1517 08e4 8927      		eor r24,r25
 1518 08e6 9F70      		andi r25,0x0f
 1519 08e8 8927      		eor r24,r25
 1520 08ea 8170      		andi r24,lo8(1)
 1521 08ec 9070      		andi r25,hi8(1)
 1522 08ee 8217      		cp r24,r18
 1523 08f0 9307      		cpc r25,r19
 1524 08f2 81F7      		brne .L84
 1525               	.LM124:
 1526 08f4 40E3      		ldi r20,lo8(48)
 1527 08f6 4093 C600 		sts 198,r20
 1528 08fa 21E0      		ldi r18,lo8(1)
 1529 08fc 30E0      		ldi r19,hi8(1)
 1530               	.L87:
 1531               	.LBE115:
 1532               	.LBE114:
 1533               	.LBB116:
 1534               	.LBB117:
 1535               	.LM125:
 1536 08fe 8091 C000 		lds r24,192
 1537 0902 9927      		clr r25
 1538 0904 9695      		lsr r25
 1539 0906 8795      		ror r24
 1540 0908 9295      		swap r25
 1541 090a 8295      		swap r24
 1542 090c 8F70      		andi r24,0x0f
 1543 090e 8927      		eor r24,r25
 1544 0910 9F70      		andi r25,0x0f
 1545 0912 8927      		eor r24,r25
 1546 0914 8170      		andi r24,lo8(1)
 1547 0916 9070      		andi r25,hi8(1)
 1548 0918 8217      		cp r24,r18
 1549 091a 9307      		cpc r25,r19
 1550 091c 81F7      		brne .L87
 1551               	.LM126:
 1552 091e 51E3      		ldi r21,lo8(49)
 1553 0920 5093 C600 		sts 198,r21
 1554 0924 21E0      		ldi r18,lo8(1)
 1555 0926 30E0      		ldi r19,hi8(1)
 1556               	.L90:
 1557               	.LBE117:
 1558               	.LBE116:
 1559               	.LBB118:
 1560               	.LBB119:
 1561               	.LM127:
 1562 0928 8091 C000 		lds r24,192
 1563 092c 9927      		clr r25
 1564 092e 9695      		lsr r25
 1565 0930 8795      		ror r24
 1566 0932 9295      		swap r25
 1567 0934 8295      		swap r24
 1568 0936 8F70      		andi r24,0x0f
 1569 0938 8927      		eor r24,r25
 1570 093a 9F70      		andi r25,0x0f
 1571 093c 8927      		eor r24,r25
 1572 093e 8170      		andi r24,lo8(1)
 1573 0940 9070      		andi r25,hi8(1)
 1574 0942 8217      		cp r24,r18
 1575 0944 9307      		cpc r25,r19
 1576 0946 81F7      		brne .L90
 1577               	.LM128:
 1578 0948 60E3      		ldi r22,lo8(48)
 1579 094a 6093 C600 		sts 198,r22
 1580 094e 21E0      		ldi r18,lo8(1)
 1581 0950 30E0      		ldi r19,hi8(1)
 1582               	.L93:
 1583               	.LBE119:
 1584               	.LBE118:
 1585               	.LBB120:
 1586               	.LBB121:
 1587               	.LM129:
 1588 0952 8091 C000 		lds r24,192
 1589 0956 9927      		clr r25
 1590 0958 9695      		lsr r25
 1591 095a 8795      		ror r24
 1592 095c 9295      		swap r25
 1593 095e 8295      		swap r24
 1594 0960 8F70      		andi r24,0x0f
 1595 0962 8927      		eor r24,r25
 1596 0964 9F70      		andi r25,0x0f
 1597 0966 8927      		eor r24,r25
 1598 0968 8170      		andi r24,lo8(1)
 1599 096a 9070      		andi r25,hi8(1)
 1600 096c 8217      		cp r24,r18
 1601 096e 9307      		cpc r25,r19
 1602 0970 81F7      		brne .L93
 1603 0972 ACCC      		rjmp .L360
 1604               	.L187:
 1605 0974 21E0      		ldi r18,lo8(1)
 1606 0976 30E0      		ldi r19,hi8(1)
 1607               	.L188:
 1608               	.LBE121:
 1609               	.LBE120:
 1610               	.LBB122:
 1611               	.LBB123:
 1612 0978 8091 C000 		lds r24,192
 1613 097c 9927      		clr r25
 1614 097e 9695      		lsr r25
 1615 0980 8795      		ror r24
 1616 0982 9295      		swap r25
 1617 0984 8295      		swap r24
 1618 0986 8F70      		andi r24,0x0f
 1619 0988 8927      		eor r24,r25
 1620 098a 9F70      		andi r25,0x0f
 1621 098c 8927      		eor r24,r25
 1622 098e 8170      		andi r24,lo8(1)
 1623 0990 9070      		andi r25,hi8(1)
 1624 0992 8217      		cp r24,r18
 1625 0994 9307      		cpc r25,r19
 1626 0996 81F7      		brne .L188
 1627               	.LM130:
 1628 0998 41E3      		ldi r20,lo8(49)
 1629 099a 4093 C600 		sts 198,r20
 1630 099e 21E0      		ldi r18,lo8(1)
 1631 09a0 30E0      		ldi r19,hi8(1)
 1632               	.L191:
 1633               	.LBE123:
 1634               	.LBE122:
 1635               	.LBB124:
 1636               	.LBB125:
 1637               	.LM131:
 1638 09a2 8091 C000 		lds r24,192
 1639 09a6 9927      		clr r25
 1640 09a8 9695      		lsr r25
 1641 09aa 8795      		ror r24
 1642 09ac 9295      		swap r25
 1643 09ae 8295      		swap r24
 1644 09b0 8F70      		andi r24,0x0f
 1645 09b2 8927      		eor r24,r25
 1646 09b4 9F70      		andi r25,0x0f
 1647 09b6 8927      		eor r24,r25
 1648 09b8 8170      		andi r24,lo8(1)
 1649 09ba 9070      		andi r25,hi8(1)
 1650 09bc 8217      		cp r24,r18
 1651 09be 9307      		cpc r25,r19
 1652 09c0 81F7      		brne .L191
 1653               	.LM132:
 1654 09c2 51E3      		ldi r21,lo8(49)
 1655 09c4 5093 C600 		sts 198,r21
 1656 09c8 21E0      		ldi r18,lo8(1)
 1657 09ca 30E0      		ldi r19,hi8(1)
 1658               	.L194:
 1659               	.LBE125:
 1660               	.LBE124:
 1661               	.LBB126:
 1662               	.LBB127:
 1663               	.LM133:
 1664 09cc 8091 C000 		lds r24,192
 1665 09d0 9927      		clr r25
 1666 09d2 9695      		lsr r25
 1667 09d4 8795      		ror r24
 1668 09d6 9295      		swap r25
 1669 09d8 8295      		swap r24
 1670 09da 8F70      		andi r24,0x0f
 1671 09dc 8927      		eor r24,r25
 1672 09de 9F70      		andi r25,0x0f
 1673 09e0 8927      		eor r24,r25
 1674 09e2 8170      		andi r24,lo8(1)
 1675 09e4 9070      		andi r25,hi8(1)
 1676 09e6 8217      		cp r24,r18
 1677 09e8 9307      		cpc r25,r19
 1678 09ea 81F7      		brne .L194
 1679               	.LM134:
 1680 09ec 60E3      		ldi r22,lo8(48)
 1681 09ee 6093 C600 		sts 198,r22
 1682 09f2 21E0      		ldi r18,lo8(1)
 1683 09f4 30E0      		ldi r19,hi8(1)
 1684               	.L197:
 1685               	.LBE127:
 1686               	.LBE126:
 1687               	.LBB128:
 1688               	.LBB129:
 1689               	.LM135:
 1690 09f6 8091 C000 		lds r24,192
 1691 09fa 9927      		clr r25
 1692 09fc 9695      		lsr r25
 1693 09fe 8795      		ror r24
 1694 0a00 9295      		swap r25
 1695 0a02 8295      		swap r24
 1696 0a04 8F70      		andi r24,0x0f
 1697 0a06 8927      		eor r24,r25
 1698 0a08 9F70      		andi r25,0x0f
 1699 0a0a 8927      		eor r24,r25
 1700 0a0c 8170      		andi r24,lo8(1)
 1701 0a0e 9070      		andi r25,hi8(1)
 1702 0a10 8217      		cp r24,r18
 1703 0a12 9307      		cpc r25,r19
 1704 0a14 81F7      		brne .L197
 1705 0a16 5ACC      		rjmp .L360
 1706               	.L362:
 1707               	.LBE129:
 1708               	.LBE128:
 1709               	.LM136:
 1710 0a18 892B      		or r24,r25
 1711 0a1a 09F4      		brne .+2
 1712 0a1c 54C0      		rjmp .L18
 1713 0a1e 0895      		ret
 1714               	.L200:
 1715 0a20 21E0      		ldi r18,lo8(1)
 1716 0a22 30E0      		ldi r19,hi8(1)
 1717               	.L201:
 1718               	.LBB130:
 1719               	.LBB131:
 1720               	.LM137:
 1721 0a24 8091 C000 		lds r24,192
 1722 0a28 9927      		clr r25
 1723 0a2a 9695      		lsr r25
 1724 0a2c 8795      		ror r24
 1725 0a2e 9295      		swap r25
 1726 0a30 8295      		swap r24
 1727 0a32 8F70      		andi r24,0x0f
 1728 0a34 8927      		eor r24,r25
 1729 0a36 9F70      		andi r25,0x0f
 1730 0a38 8927      		eor r24,r25
 1731 0a3a 8170      		andi r24,lo8(1)
 1732 0a3c 9070      		andi r25,hi8(1)
 1733 0a3e 8217      		cp r24,r18
 1734 0a40 9307      		cpc r25,r19
 1735 0a42 81F7      		brne .L201
 1736               	.LM138:
 1737 0a44 71E3      		ldi r23,lo8(49)
 1738 0a46 7093 C600 		sts 198,r23
 1739 0a4a 21E0      		ldi r18,lo8(1)
 1740 0a4c 30E0      		ldi r19,hi8(1)
 1741               	.L204:
 1742               	.LBE131:
 1743               	.LBE130:
 1744               	.LBB132:
 1745               	.LBB133:
 1746               	.LM139:
 1747 0a4e 8091 C000 		lds r24,192
 1748 0a52 9927      		clr r25
 1749 0a54 9695      		lsr r25
 1750 0a56 8795      		ror r24
 1751 0a58 9295      		swap r25
 1752 0a5a 8295      		swap r24
 1753 0a5c 8F70      		andi r24,0x0f
 1754 0a5e 8927      		eor r24,r25
 1755 0a60 9F70      		andi r25,0x0f
 1756 0a62 8927      		eor r24,r25
 1757 0a64 8170      		andi r24,lo8(1)
 1758 0a66 9070      		andi r25,hi8(1)
 1759 0a68 8217      		cp r24,r18
 1760 0a6a 9307      		cpc r25,r19
 1761 0a6c 81F7      		brne .L204
 1762               	.LM140:
 1763 0a6e 91E3      		ldi r25,lo8(49)
 1764 0a70 9093 C600 		sts 198,r25
 1765 0a74 21E0      		ldi r18,lo8(1)
 1766 0a76 30E0      		ldi r19,hi8(1)
 1767               	.L207:
 1768               	.LBE133:
 1769               	.LBE132:
 1770               	.LBB134:
 1771               	.LBB135:
 1772               	.LM141:
 1773 0a78 8091 C000 		lds r24,192
 1774 0a7c 9927      		clr r25
 1775 0a7e 9695      		lsr r25
 1776 0a80 8795      		ror r24
 1777 0a82 9295      		swap r25
 1778 0a84 8295      		swap r24
 1779 0a86 8F70      		andi r24,0x0f
 1780 0a88 8927      		eor r24,r25
 1781 0a8a 9F70      		andi r25,0x0f
 1782 0a8c 8927      		eor r24,r25
 1783 0a8e 8170      		andi r24,lo8(1)
 1784 0a90 9070      		andi r25,hi8(1)
 1785 0a92 8217      		cp r24,r18
 1786 0a94 9307      		cpc r25,r19
 1787 0a96 81F7      		brne .L207
 1788               	.LM142:
 1789 0a98 A1E3      		ldi r26,lo8(49)
 1790 0a9a A093 C600 		sts 198,r26
 1791 0a9e 21E0      		ldi r18,lo8(1)
 1792 0aa0 30E0      		ldi r19,hi8(1)
 1793               	.L210:
 1794               	.LBE135:
 1795               	.LBE134:
 1796               	.LBB136:
 1797               	.LBB137:
 1798               	.LM143:
 1799 0aa2 8091 C000 		lds r24,192
 1800 0aa6 9927      		clr r25
 1801 0aa8 9695      		lsr r25
 1802 0aaa 8795      		ror r24
 1803 0aac 9295      		swap r25
 1804 0aae 8295      		swap r24
 1805 0ab0 8F70      		andi r24,0x0f
 1806 0ab2 8927      		eor r24,r25
 1807 0ab4 9F70      		andi r25,0x0f
 1808 0ab6 8927      		eor r24,r25
 1809 0ab8 8170      		andi r24,lo8(1)
 1810 0aba 9070      		andi r25,hi8(1)
 1811 0abc 8217      		cp r24,r18
 1812 0abe 9307      		cpc r25,r19
 1813 0ac0 81F7      		brne .L210
 1814               	.LM144:
 1815 0ac2 80E3      		ldi r24,lo8(48)
 1816 0ac4 4DCB      		rjmp .L363
 1817               	.L18:
 1818 0ac6 21E0      		ldi r18,lo8(1)
 1819 0ac8 30E0      		ldi r19,hi8(1)
 1820               	.L19:
 1821               	.LBE137:
 1822               	.LBE136:
 1823               	.LBB138:
 1824               	.LBB139:
 1825               	.LM145:
 1826 0aca 8091 C000 		lds r24,192
 1827 0ace 9927      		clr r25
 1828 0ad0 9695      		lsr r25
 1829 0ad2 8795      		ror r24
 1830 0ad4 9295      		swap r25
 1831 0ad6 8295      		swap r24
 1832 0ad8 8F70      		andi r24,0x0f
 1833 0ada 8927      		eor r24,r25
 1834 0adc 9F70      		andi r25,0x0f
 1835 0ade 8927      		eor r24,r25
 1836 0ae0 8170      		andi r24,lo8(1)
 1837 0ae2 9070      		andi r25,hi8(1)
 1838 0ae4 8217      		cp r24,r18
 1839 0ae6 9307      		cpc r25,r19
 1840 0ae8 81F7      		brne .L19
 1841               	.LM146:
 1842 0aea 80E3      		ldi r24,lo8(48)
 1843 0aec 8093 C600 		sts 198,r24
 1844 0af0 21E0      		ldi r18,lo8(1)
 1845 0af2 30E0      		ldi r19,hi8(1)
 1846               	.L22:
 1847               	.LBE139:
 1848               	.LBE138:
 1849               	.LBB140:
 1850               	.LBB141:
 1851               	.LM147:
 1852 0af4 8091 C000 		lds r24,192
 1853 0af8 9927      		clr r25
 1854 0afa 9695      		lsr r25
 1855 0afc 8795      		ror r24
 1856 0afe 9295      		swap r25
 1857 0b00 8295      		swap r24
 1858 0b02 8F70      		andi r24,0x0f
 1859 0b04 8927      		eor r24,r25
 1860 0b06 9F70      		andi r25,0x0f
 1861 0b08 8927      		eor r24,r25
 1862 0b0a 8170      		andi r24,lo8(1)
 1863 0b0c 9070      		andi r25,hi8(1)
 1864 0b0e 8217      		cp r24,r18
 1865 0b10 9307      		cpc r25,r19
 1866 0b12 81F7      		brne .L22
 1867               	.LM148:
 1868 0b14 20E3      		ldi r18,lo8(48)
 1869 0b16 2093 C600 		sts 198,r18
 1870 0b1a 21E0      		ldi r18,lo8(1)
 1871 0b1c 30E0      		ldi r19,hi8(1)
 1872               	.L25:
 1873               	.LBE141:
 1874               	.LBE140:
 1875               	.LBB142:
 1876               	.LBB143:
 1877               	.LM149:
 1878 0b1e 8091 C000 		lds r24,192
 1879 0b22 9927      		clr r25
 1880 0b24 9695      		lsr r25
 1881 0b26 8795      		ror r24
 1882 0b28 9295      		swap r25
 1883 0b2a 8295      		swap r24
 1884 0b2c 8F70      		andi r24,0x0f
 1885 0b2e 8927      		eor r24,r25
 1886 0b30 9F70      		andi r25,0x0f
 1887 0b32 8927      		eor r24,r25
 1888 0b34 8170      		andi r24,lo8(1)
 1889 0b36 9070      		andi r25,hi8(1)
 1890 0b38 8217      		cp r24,r18
 1891 0b3a 9307      		cpc r25,r19
 1892 0b3c 81F7      		brne .L25
 1893               	.LM150:
 1894 0b3e 30E3      		ldi r19,lo8(48)
 1895 0b40 3093 C600 		sts 198,r19
 1896 0b44 21E0      		ldi r18,lo8(1)
 1897 0b46 30E0      		ldi r19,hi8(1)
 1898               	.L28:
 1899               	.LBE143:
 1900               	.LBE142:
 1901               	.LBB144:
 1902               	.LBB145:
 1903               	.LM151:
 1904 0b48 8091 C000 		lds r24,192
 1905 0b4c 9927      		clr r25
 1906 0b4e 9695      		lsr r25
 1907 0b50 8795      		ror r24
 1908 0b52 9295      		swap r25
 1909 0b54 8295      		swap r24
 1910 0b56 8F70      		andi r24,0x0f
 1911 0b58 8927      		eor r24,r25
 1912 0b5a 9F70      		andi r25,0x0f
 1913 0b5c 8927      		eor r24,r25
 1914 0b5e 8170      		andi r24,lo8(1)
 1915 0b60 9070      		andi r25,hi8(1)
 1916 0b62 8217      		cp r24,r18
 1917 0b64 9307      		cpc r25,r19
 1918 0b66 81F7      		brne .L28
 1919               	.LBE145:
 1920               	.LBE144:
 1921               	.LBB146:
 1922               	.LBB147:
 1923               	.LM152:
 1924 0b68 80E3      		ldi r24,lo8(48)
 1925 0b6a FACA      		rjmp .L363
 1926               	.LBE147:
 1927               	.LBE146:
 1928               	/* epilogue: frame size=0 */
 1929               	/* epilogue: noreturn */
 1930               	/* epilogue end (size=0) */
 1931               	/* function UART_send_BIN4 size 1396 (1396) */
 1932               	.LFE7:
 1934               	.global	UART_send_BIN8
 1936               	UART_send_BIN8:
 1937               	.LFB8:
 1938               	.LM153:
 1939               	/* prologue: frame size=0 */
 1940 0b6c CF93      		push r28
 1941               	/* prologue end (size=1) */
 1942 0b6e C82F      		mov r28,r24
 1943 0b70 21E0      		ldi r18,lo8(1)
 1944 0b72 30E0      		ldi r19,hi8(1)
 1945               	.L366:
 1946               	.LBB148:
 1947               	.LBB149:
 1948               	.LM154:
 1949 0b74 8091 C000 		lds r24,192
 1950 0b78 9927      		clr r25
 1951 0b7a 9695      		lsr r25
 1952 0b7c 8795      		ror r24
 1953 0b7e 9295      		swap r25
 1954 0b80 8295      		swap r24
 1955 0b82 8F70      		andi r24,0x0f
 1956 0b84 8927      		eor r24,r25
 1957 0b86 9F70      		andi r25,0x0f
 1958 0b88 8927      		eor r24,r25
 1959 0b8a 8170      		andi r24,lo8(1)
 1960 0b8c 9070      		andi r25,hi8(1)
 1961 0b8e 8217      		cp r24,r18
 1962 0b90 9307      		cpc r25,r19
 1963 0b92 81F7      		brne .L366
 1964               	.LM155:
 1965 0b94 82E6      		ldi r24,lo8(98)
 1966 0b96 8093 C600 		sts 198,r24
 1967               	.LBE149:
 1968               	.LBE148:
 1969               	.LM156:
 1970 0b9a 8C2F      		mov r24,r28
 1971 0b9c 8295      		swap r24
 1972 0b9e 8F70      		andi r24,0x0f
 1973 0ba0 0E94 0000 		call UART_send_BIN4
 1974               	.LM157:
 1975 0ba4 8C2F      		mov r24,r28
 1976 0ba6 8F70      		andi r24,lo8(15)
 1977 0ba8 0E94 0000 		call UART_send_BIN4
 1978               	/* epilogue: frame size=0 */
 1979 0bac CF91      		pop r28
 1980 0bae 0895      		ret
 1981               	/* epilogue end (size=2) */
 1982               	/* function UART_send_BIN8 size 34 (31) */
 1983               	.LFE8:
 1985               	.global	UART_send_HEX4
 1987               	UART_send_HEX4:
 1988               	.LFB9:
 1989               	.LM158:
 1990               	/* prologue: frame size=0 */
 1991               	/* prologue end (size=0) */
 1992               	.LM159:
 1993 0bb0 9927      		clr r25
 1994 0bb2 8730      		cpi r24,7
 1995 0bb4 9105      		cpc r25,__zero_reg__
 1996 0bb6 09F4      		brne .+2
 1997 0bb8 4AC0      		rjmp .L401
 1998               	.LM160:
 1999 0bba 8830      		cpi r24,8
 2000 0bbc 9105      		cpc r25,__zero_reg__
 2001 0bbe 24F5      		brge .L437
 2002 0bc0 8330      		cpi r24,3
 2003 0bc2 9105      		cpc r25,__zero_reg__
 2004 0bc4 09F4      		brne .+2
 2005 0bc6 9AC0      		rjmp .L385
 2006 0bc8 8430      		cpi r24,4
 2007 0bca 9105      		cpc r25,__zero_reg__
 2008 0bcc 0CF0      		brlt .+2
 2009 0bce 55C0      		rjmp .L438
 2010 0bd0 8130      		cpi r24,1
 2011 0bd2 9105      		cpc r25,__zero_reg__
 2012 0bd4 09F4      		brne .+2
 2013 0bd6 FAC0      		rjmp .L377
 2014 0bd8 8230      		cpi r24,2
 2015 0bda 9105      		cpc r25,__zero_reg__
 2016 0bdc 0CF4      		brge .+2
 2017 0bde 44C1      		rjmp .L475
 2018 0be0 21E0      		ldi r18,lo8(1)
 2019 0be2 30E0      		ldi r19,hi8(1)
 2020               	.L382:
 2021               	.LBB150:
 2022               	.LBB151:
 2023               	.LM161:
 2024 0be4 8091 C000 		lds r24,192
 2025 0be8 9927      		clr r25
 2026 0bea 9695      		lsr r25
 2027 0bec 8795      		ror r24
 2028 0bee 9295      		swap r25
 2029 0bf0 8295      		swap r24
 2030 0bf2 8F70      		andi r24,0x0f
 2031 0bf4 8927      		eor r24,r25
 2032 0bf6 9F70      		andi r25,0x0f
 2033 0bf8 8927      		eor r24,r25
 2034 0bfa 8170      		andi r24,lo8(1)
 2035 0bfc 9070      		andi r25,hi8(1)
 2036 0bfe 8217      		cp r24,r18
 2037 0c00 9307      		cpc r25,r19
 2038 0c02 81F7      		brne .L382
 2039               	.LM162:
 2040 0c04 82E3      		ldi r24,lo8(50)
 2041 0c06 36C0      		rjmp .L474
 2042               	.L437:
 2043               	.LBE151:
 2044               	.LBE150:
 2045               	.LM163:
 2046 0c08 8B30      		cpi r24,11
 2047 0c0a 9105      		cpc r25,__zero_reg__
 2048 0c0c 09F4      		brne .+2
 2049 0c0e 60C0      		rjmp .L417
 2050 0c10 8C30      		cpi r24,12
 2051 0c12 9105      		cpc r25,__zero_reg__
 2052 0c14 0CF0      		brlt .+2
 2053 0c16 4CC0      		rjmp .L439
 2054 0c18 8930      		cpi r24,9
 2055 0c1a 9105      		cpc r25,__zero_reg__
 2056 0c1c 09F4      		brne .+2
 2057 0c1e E8C0      		rjmp .L409
 2058 0c20 0A97      		sbiw r24,10
 2059 0c22 0CF0      		brlt .+2
 2060 0c24 81C0      		rjmp .L413
 2061 0c26 21E0      		ldi r18,lo8(1)
 2062 0c28 30E0      		ldi r19,hi8(1)
 2063               	.L406:
 2064               	.LBB152:
 2065               	.LBB153:
 2066               	.LM164:
 2067 0c2a 8091 C000 		lds r24,192
 2068 0c2e 9927      		clr r25
 2069 0c30 9695      		lsr r25
 2070 0c32 8795      		ror r24
 2071 0c34 9295      		swap r25
 2072 0c36 8295      		swap r24
 2073 0c38 8F70      		andi r24,0x0f
 2074 0c3a 8927      		eor r24,r25
 2075 0c3c 9F70      		andi r25,0x0f
 2076 0c3e 8927      		eor r24,r25
 2077 0c40 8170      		andi r24,lo8(1)
 2078 0c42 9070      		andi r25,hi8(1)
 2079 0c44 8217      		cp r24,r18
 2080 0c46 9307      		cpc r25,r19
 2081 0c48 81F7      		brne .L406
 2082               	.LM165:
 2083 0c4a 88E3      		ldi r24,lo8(56)
 2084 0c4c 13C0      		rjmp .L474
 2085               	.L401:
 2086 0c4e 21E0      		ldi r18,lo8(1)
 2087 0c50 30E0      		ldi r19,hi8(1)
 2088               	.L402:
 2089               	.LBE153:
 2090               	.LBE152:
 2091               	.LBB154:
 2092               	.LBB155:
 2093               	.LM166:
 2094 0c52 8091 C000 		lds r24,192
 2095 0c56 9927      		clr r25
 2096 0c58 9695      		lsr r25
 2097 0c5a 8795      		ror r24
 2098 0c5c 9295      		swap r25
 2099 0c5e 8295      		swap r24
 2100 0c60 8F70      		andi r24,0x0f
 2101 0c62 8927      		eor r24,r25
 2102 0c64 9F70      		andi r25,0x0f
 2103 0c66 8927      		eor r24,r25
 2104 0c68 8170      		andi r24,lo8(1)
 2105 0c6a 9070      		andi r25,hi8(1)
 2106 0c6c 8217      		cp r24,r18
 2107 0c6e 9307      		cpc r25,r19
 2108 0c70 81F7      		brne .L402
 2109               	.LM167:
 2110 0c72 87E3      		ldi r24,lo8(55)
 2111               	.L474:
 2112               	.LBE155:
 2113               	.LBE154:
 2114               	.LBB156:
 2115               	.LBB157:
 2116 0c74 8093 C600 		sts 198,r24
 2117 0c78 0895      		ret
 2118               	.L438:
 2119               	.LBE157:
 2120               	.LBE156:
 2121               	.LM168:
 2122 0c7a 8530      		cpi r24,5
 2123 0c7c 9105      		cpc r25,__zero_reg__
 2124 0c7e 09F4      		brne .+2
 2125 0c80 CBC0      		rjmp .L393
 2126 0c82 0697      		sbiw r24,6
 2127 0c84 0CF0      		brlt .+2
 2128 0c86 78C0      		rjmp .L397
 2129 0c88 21E0      		ldi r18,lo8(1)
 2130 0c8a 30E0      		ldi r19,hi8(1)
 2131               	.L390:
 2132               	.LBB158:
 2133               	.LBB159:
 2134               	.LM169:
 2135 0c8c 8091 C000 		lds r24,192
 2136 0c90 9927      		clr r25
 2137 0c92 9695      		lsr r25
 2138 0c94 8795      		ror r24
 2139 0c96 9295      		swap r25
 2140 0c98 8295      		swap r24
 2141 0c9a 8F70      		andi r24,0x0f
 2142 0c9c 8927      		eor r24,r25
 2143 0c9e 9F70      		andi r25,0x0f
 2144 0ca0 8927      		eor r24,r25
 2145 0ca2 8170      		andi r24,lo8(1)
 2146 0ca4 9070      		andi r25,hi8(1)
 2147 0ca6 8217      		cp r24,r18
 2148 0ca8 9307      		cpc r25,r19
 2149 0caa 81F7      		brne .L390
 2150               	.LM170:
 2151 0cac 84E3      		ldi r24,lo8(52)
 2152 0cae E2CF      		rjmp .L474
 2153               	.L439:
 2154               	.LBE159:
 2155               	.LBE158:
 2156               	.LM171:
 2157 0cb0 8D30      		cpi r24,13
 2158 0cb2 9105      		cpc r25,__zero_reg__
 2159 0cb4 09F4      		brne .+2
 2160 0cb6 C4C0      		rjmp .L425
 2161 0cb8 8D30      		cpi r24,13
 2162 0cba 9105      		cpc r25,__zero_reg__
 2163 0cbc 0CF4      		brge .+2
 2164 0cbe 48C0      		rjmp .L421
 2165 0cc0 8E30      		cpi r24,14
 2166 0cc2 9105      		cpc r25,__zero_reg__
 2167 0cc4 09F4      		brne .+2
 2168 0cc6 D3C0      		rjmp .L429
 2169 0cc8 0F97      		sbiw r24,15
 2170 0cca 09F4      		brne .+2
 2171 0ccc 69C0      		rjmp .L476
 2172 0cce 0895      		ret
 2173               	.L417:
 2174 0cd0 21E0      		ldi r18,lo8(1)
 2175 0cd2 30E0      		ldi r19,hi8(1)
 2176               	.L418:
 2177               	.LBB160:
 2178               	.LBB161:
 2179               	.LM172:
 2180 0cd4 8091 C000 		lds r24,192
 2181 0cd8 9927      		clr r25
 2182 0cda 9695      		lsr r25
 2183 0cdc 8795      		ror r24
 2184 0cde 9295      		swap r25
 2185 0ce0 8295      		swap r24
 2186 0ce2 8F70      		andi r24,0x0f
 2187 0ce4 8927      		eor r24,r25
 2188 0ce6 9F70      		andi r25,0x0f
 2189 0ce8 8927      		eor r24,r25
 2190 0cea 8170      		andi r24,lo8(1)
 2191 0cec 9070      		andi r25,hi8(1)
 2192 0cee 8217      		cp r24,r18
 2193 0cf0 9307      		cpc r25,r19
 2194 0cf2 81F7      		brne .L418
 2195               	.LM173:
 2196 0cf4 82E4      		ldi r24,lo8(66)
 2197               	.LBE161:
 2198               	.LBE160:
 2199               	.LBB162:
 2200               	.LBB163:
 2201 0cf6 8093 C600 		sts 198,r24
 2202 0cfa 0895      		ret
 2203               	.L385:
 2204 0cfc 21E0      		ldi r18,lo8(1)
 2205 0cfe 30E0      		ldi r19,hi8(1)
 2206               	.L386:
 2207               	.LBE163:
 2208               	.LBE162:
 2209               	.LBB164:
 2210               	.LBB165:
 2211               	.LM174:
 2212 0d00 8091 C000 		lds r24,192
 2213 0d04 9927      		clr r25
 2214 0d06 9695      		lsr r25
 2215 0d08 8795      		ror r24
 2216 0d0a 9295      		swap r25
 2217 0d0c 8295      		swap r24
 2218 0d0e 8F70      		andi r24,0x0f
 2219 0d10 8927      		eor r24,r25
 2220 0d12 9F70      		andi r25,0x0f
 2221 0d14 8927      		eor r24,r25
 2222 0d16 8170      		andi r24,lo8(1)
 2223 0d18 9070      		andi r25,hi8(1)
 2224 0d1a 8217      		cp r24,r18
 2225 0d1c 9307      		cpc r25,r19
 2226 0d1e 81F7      		brne .L386
 2227               	.LM175:
 2228 0d20 83E3      		ldi r24,lo8(51)
 2229               	.LBE165:
 2230               	.LBE164:
 2231               	.LBB166:
 2232               	.LBB167:
 2233 0d22 8093 C600 		sts 198,r24
 2234 0d26 0895      		ret
 2235               	.L413:
 2236 0d28 21E0      		ldi r18,lo8(1)
 2237 0d2a 30E0      		ldi r19,hi8(1)
 2238               	.L414:
 2239               	.LBE167:
 2240               	.LBE166:
 2241               	.LBB168:
 2242               	.LBB169:
 2243               	.LM176:
 2244 0d2c 8091 C000 		lds r24,192
 2245 0d30 9927      		clr r25
 2246 0d32 9695      		lsr r25
 2247 0d34 8795      		ror r24
 2248 0d36 9295      		swap r25
 2249 0d38 8295      		swap r24
 2250 0d3a 8F70      		andi r24,0x0f
 2251 0d3c 8927      		eor r24,r25
 2252 0d3e 9F70      		andi r25,0x0f
 2253 0d40 8927      		eor r24,r25
 2254 0d42 8170      		andi r24,lo8(1)
 2255 0d44 9070      		andi r25,hi8(1)
 2256 0d46 8217      		cp r24,r18
 2257 0d48 9307      		cpc r25,r19
 2258 0d4a 81F7      		brne .L414
 2259               	.LM177:
 2260 0d4c 81E4      		ldi r24,lo8(65)
 2261 0d4e 92CF      		rjmp .L474
 2262               	.L421:
 2263 0d50 21E0      		ldi r18,lo8(1)
 2264 0d52 30E0      		ldi r19,hi8(1)
 2265               	.L422:
 2266               	.LBE169:
 2267               	.LBE168:
 2268               	.LBB170:
 2269               	.LBB171:
 2270               	.LM178:
 2271 0d54 8091 C000 		lds r24,192
 2272 0d58 9927      		clr r25
 2273 0d5a 9695      		lsr r25
 2274 0d5c 8795      		ror r24
 2275 0d5e 9295      		swap r25
 2276 0d60 8295      		swap r24
 2277 0d62 8F70      		andi r24,0x0f
 2278 0d64 8927      		eor r24,r25
 2279 0d66 9F70      		andi r25,0x0f
 2280 0d68 8927      		eor r24,r25
 2281 0d6a 8170      		andi r24,lo8(1)
 2282 0d6c 9070      		andi r25,hi8(1)
 2283 0d6e 8217      		cp r24,r18
 2284 0d70 9307      		cpc r25,r19
 2285 0d72 81F7      		brne .L422
 2286               	.LM179:
 2287 0d74 83E4      		ldi r24,lo8(67)
 2288 0d76 7ECF      		rjmp .L474
 2289               	.L397:
 2290 0d78 21E0      		ldi r18,lo8(1)
 2291 0d7a 30E0      		ldi r19,hi8(1)
 2292               	.L398:
 2293               	.LBE171:
 2294               	.LBE170:
 2295               	.LBB172:
 2296               	.LBB173:
 2297               	.LM180:
 2298 0d7c 8091 C000 		lds r24,192
 2299 0d80 9927      		clr r25
 2300 0d82 9695      		lsr r25
 2301 0d84 8795      		ror r24
 2302 0d86 9295      		swap r25
 2303 0d88 8295      		swap r24
 2304 0d8a 8F70      		andi r24,0x0f
 2305 0d8c 8927      		eor r24,r25
 2306 0d8e 9F70      		andi r25,0x0f
 2307 0d90 8927      		eor r24,r25
 2308 0d92 8170      		andi r24,lo8(1)
 2309 0d94 9070      		andi r25,hi8(1)
 2310 0d96 8217      		cp r24,r18
 2311 0d98 9307      		cpc r25,r19
 2312 0d9a 81F7      		brne .L398
 2313               	.LM181:
 2314 0d9c 86E3      		ldi r24,lo8(54)
 2315 0d9e 6ACF      		rjmp .L474
 2316               	.L476:
 2317 0da0 21E0      		ldi r18,lo8(1)
 2318 0da2 30E0      		ldi r19,hi8(1)
 2319               	.L434:
 2320               	.LBE173:
 2321               	.LBE172:
 2322               	.LBB174:
 2323               	.LBB175:
 2324               	.LM182:
 2325 0da4 8091 C000 		lds r24,192
 2326 0da8 9927      		clr r25
 2327 0daa 9695      		lsr r25
 2328 0dac 8795      		ror r24
 2329 0dae 9295      		swap r25
 2330 0db0 8295      		swap r24
 2331 0db2 8F70      		andi r24,0x0f
 2332 0db4 8927      		eor r24,r25
 2333 0db6 9F70      		andi r25,0x0f
 2334 0db8 8927      		eor r24,r25
 2335 0dba 8170      		andi r24,lo8(1)
 2336 0dbc 9070      		andi r25,hi8(1)
 2337 0dbe 8217      		cp r24,r18
 2338 0dc0 9307      		cpc r25,r19
 2339 0dc2 81F7      		brne .L434
 2340               	.LM183:
 2341 0dc4 86E4      		ldi r24,lo8(70)
 2342 0dc6 8093 C600 		sts 198,r24
 2343 0dca 0895      		ret
 2344               	.L377:
 2345 0dcc 9C01      		movw r18,r24
 2346               	.L378:
 2347               	.LBE175:
 2348               	.LBE174:
 2349               	.LBB176:
 2350               	.LBB177:
 2351               	.LM184:
 2352 0dce 8091 C000 		lds r24,192
 2353 0dd2 9927      		clr r25
 2354 0dd4 9695      		lsr r25
 2355 0dd6 8795      		ror r24
 2356 0dd8 9295      		swap r25
 2357 0dda 8295      		swap r24
 2358 0ddc 8F70      		andi r24,0x0f
 2359 0dde 8927      		eor r24,r25
 2360 0de0 9F70      		andi r25,0x0f
 2361 0de2 8927      		eor r24,r25
 2362 0de4 8227      		eor r24,r18
 2363 0de6 9327      		eor r25,r19
 2364 0de8 80FD      		sbrc r24,0
 2365 0dea F1CF      		rjmp .L378
 2366               	.LM185:
 2367 0dec 81E3      		ldi r24,lo8(49)
 2368 0dee 42CF      		rjmp .L474
 2369               	.L409:
 2370 0df0 21E0      		ldi r18,lo8(1)
 2371 0df2 30E0      		ldi r19,hi8(1)
 2372               	.L410:
 2373               	.LBE177:
 2374               	.LBE176:
 2375               	.LBB178:
 2376               	.LBB179:
 2377               	.LM186:
 2378 0df4 8091 C000 		lds r24,192
 2379 0df8 9927      		clr r25
 2380 0dfa 9695      		lsr r25
 2381 0dfc 8795      		ror r24
 2382 0dfe 9295      		swap r25
 2383 0e00 8295      		swap r24
 2384 0e02 8F70      		andi r24,0x0f
 2385 0e04 8927      		eor r24,r25
 2386 0e06 9F70      		andi r25,0x0f
 2387 0e08 8927      		eor r24,r25
 2388 0e0a 8170      		andi r24,lo8(1)
 2389 0e0c 9070      		andi r25,hi8(1)
 2390 0e0e 8217      		cp r24,r18
 2391 0e10 9307      		cpc r25,r19
 2392 0e12 81F7      		brne .L410
 2393               	.LM187:
 2394 0e14 89E3      		ldi r24,lo8(57)
 2395 0e16 2ECF      		rjmp .L474
 2396               	.L393:
 2397 0e18 21E0      		ldi r18,lo8(1)
 2398 0e1a 30E0      		ldi r19,hi8(1)
 2399               	.L394:
 2400               	.LBE179:
 2401               	.LBE178:
 2402               	.LBB180:
 2403               	.LBB181:
 2404               	.LM188:
 2405 0e1c 8091 C000 		lds r24,192
 2406 0e20 9927      		clr r25
 2407 0e22 9695      		lsr r25
 2408 0e24 8795      		ror r24
 2409 0e26 9295      		swap r25
 2410 0e28 8295      		swap r24
 2411 0e2a 8F70      		andi r24,0x0f
 2412 0e2c 8927      		eor r24,r25
 2413 0e2e 9F70      		andi r25,0x0f
 2414 0e30 8927      		eor r24,r25
 2415 0e32 8170      		andi r24,lo8(1)
 2416 0e34 9070      		andi r25,hi8(1)
 2417 0e36 8217      		cp r24,r18
 2418 0e38 9307      		cpc r25,r19
 2419 0e3a 81F7      		brne .L394
 2420               	.LM189:
 2421 0e3c 85E3      		ldi r24,lo8(53)
 2422 0e3e 1ACF      		rjmp .L474
 2423               	.L425:
 2424 0e40 21E0      		ldi r18,lo8(1)
 2425 0e42 30E0      		ldi r19,hi8(1)
 2426               	.L426:
 2427               	.LBE181:
 2428               	.LBE180:
 2429               	.LBB182:
 2430               	.LBB183:
 2431               	.LM190:
 2432 0e44 8091 C000 		lds r24,192
 2433 0e48 9927      		clr r25
 2434 0e4a 9695      		lsr r25
 2435 0e4c 8795      		ror r24
 2436 0e4e 9295      		swap r25
 2437 0e50 8295      		swap r24
 2438 0e52 8F70      		andi r24,0x0f
 2439 0e54 8927      		eor r24,r25
 2440 0e56 9F70      		andi r25,0x0f
 2441 0e58 8927      		eor r24,r25
 2442 0e5a 8170      		andi r24,lo8(1)
 2443 0e5c 9070      		andi r25,hi8(1)
 2444 0e5e 8217      		cp r24,r18
 2445 0e60 9307      		cpc r25,r19
 2446 0e62 81F7      		brne .L426
 2447               	.LM191:
 2448 0e64 84E4      		ldi r24,lo8(68)
 2449 0e66 06CF      		rjmp .L474
 2450               	.L475:
 2451               	.LBE183:
 2452               	.LBE182:
 2453               	.LM192:
 2454 0e68 892B      		or r24,r25
 2455 0e6a A9F0      		breq .L373
 2456 0e6c 0895      		ret
 2457               	.L429:
 2458 0e6e 21E0      		ldi r18,lo8(1)
 2459 0e70 30E0      		ldi r19,hi8(1)
 2460               	.L430:
 2461               	.LBB184:
 2462               	.LBB185:
 2463               	.LM193:
 2464 0e72 8091 C000 		lds r24,192
 2465 0e76 9927      		clr r25
 2466 0e78 9695      		lsr r25
 2467 0e7a 8795      		ror r24
 2468 0e7c 9295      		swap r25
 2469 0e7e 8295      		swap r24
 2470 0e80 8F70      		andi r24,0x0f
 2471 0e82 8927      		eor r24,r25
 2472 0e84 9F70      		andi r25,0x0f
 2473 0e86 8927      		eor r24,r25
 2474 0e88 8170      		andi r24,lo8(1)
 2475 0e8a 9070      		andi r25,hi8(1)
 2476 0e8c 8217      		cp r24,r18
 2477 0e8e 9307      		cpc r25,r19
 2478 0e90 81F7      		brne .L430
 2479               	.LM194:
 2480 0e92 85E4      		ldi r24,lo8(69)
 2481 0e94 EFCE      		rjmp .L474
 2482               	.L373:
 2483 0e96 21E0      		ldi r18,lo8(1)
 2484 0e98 30E0      		ldi r19,hi8(1)
 2485               	.L374:
 2486               	.LBE185:
 2487               	.LBE184:
 2488               	.LBB186:
 2489               	.LBB187:
 2490               	.LM195:
 2491 0e9a 8091 C000 		lds r24,192
 2492 0e9e 9927      		clr r25
 2493 0ea0 9695      		lsr r25
 2494 0ea2 8795      		ror r24
 2495 0ea4 9295      		swap r25
 2496 0ea6 8295      		swap r24
 2497 0ea8 8F70      		andi r24,0x0f
 2498 0eaa 8927      		eor r24,r25
 2499 0eac 9F70      		andi r25,0x0f
 2500 0eae 8927      		eor r24,r25
 2501 0eb0 8170      		andi r24,lo8(1)
 2502 0eb2 9070      		andi r25,hi8(1)
 2503 0eb4 8217      		cp r24,r18
 2504 0eb6 9307      		cpc r25,r19
 2505 0eb8 81F7      		brne .L374
 2506               	.LM196:
 2507 0eba 80E3      		ldi r24,lo8(48)
 2508 0ebc DBCE      		rjmp .L474
 2509               	.LBE187:
 2510               	.LBE186:
 2511               	/* epilogue: frame size=0 */
 2512               	/* epilogue: noreturn */
 2513               	/* epilogue end (size=0) */
 2514               	/* function UART_send_HEX4 size 394 (394) */
 2515               	.LFE9:
 2517               	.global	UART_send_HEX8
 2519               	UART_send_HEX8:
 2520               	.LFB10:
 2521               	.LM197:
 2522               	/* prologue: frame size=0 */
 2523 0ebe 1F93      		push r17
 2524               	/* prologue end (size=1) */
 2525 0ec0 182F      		mov r17,r24
 2526               	.LM198:
 2527 0ec2 8295      		swap r24
 2528 0ec4 8F70      		andi r24,0x0f
 2529 0ec6 0E94 0000 		call UART_send_HEX4
 2530               	.LM199:
 2531 0eca 812F      		mov r24,r17
 2532 0ecc 8F70      		andi r24,lo8(15)
 2533 0ece 0E94 0000 		call UART_send_HEX4
 2534               	/* epilogue: frame size=0 */
 2535 0ed2 1F91      		pop r17
 2536 0ed4 0895      		ret
 2537               	/* epilogue end (size=2) */
 2538               	/* function UART_send_HEX8 size 12 (9) */
 2539               	.LFE10:
 2541               	.global	UART_send_HEX16b
 2543               	UART_send_HEX16b:
 2544               	.LFB11:
 2545               	.LM200:
 2546               	/* prologue: frame size=0 */
 2547 0ed6 0F93      		push r16
 2548 0ed8 1F93      		push r17
 2549               	/* prologue end (size=2) */
 2550 0eda 182F      		mov r17,r24
 2551 0edc 062F      		mov r16,r22
 2552               	.LBB188:
 2553               	.LBB189:
 2554               	.LM201:
 2555 0ede 8295      		swap r24
 2556 0ee0 8F70      		andi r24,0x0f
 2557 0ee2 0E94 0000 		call UART_send_HEX4
 2558               	.LM202:
 2559 0ee6 812F      		mov r24,r17
 2560 0ee8 8F70      		andi r24,lo8(15)
 2561 0eea 0E94 0000 		call UART_send_HEX4
 2562               	.LBE189:
 2563               	.LBE188:
 2564               	.LBB190:
 2565               	.LBB191:
 2566               	.LM203:
 2567 0eee 802F      		mov r24,r16
 2568 0ef0 8295      		swap r24
 2569 0ef2 8F70      		andi r24,0x0f
 2570 0ef4 0E94 0000 		call UART_send_HEX4
 2571               	.LM204:
 2572 0ef8 802F      		mov r24,r16
 2573 0efa 8F70      		andi r24,lo8(15)
 2574 0efc 0E94 0000 		call UART_send_HEX4
 2575               	.LBE191:
 2576               	.LBE190:
 2577               	/* epilogue: frame size=0 */
 2578 0f00 1F91      		pop r17
 2579 0f02 0F91      		pop r16
 2580 0f04 0895      		ret
 2581               	/* epilogue end (size=3) */
 2582               	/* function UART_send_HEX16b size 24 (19) */
 2583               	.LFE11:
 2585               	.global	UART_send_HEX16
 2587               	UART_send_HEX16:
 2588               	.LFB12:
 2589               	.LM205:
 2590               	/* prologue: frame size=0 */
 2591 0f06 EF92      		push r14
 2592 0f08 FF92      		push r15
 2593 0f0a 1F93      		push r17
 2594               	/* prologue end (size=3) */
 2595 0f0c 7C01      		movw r14,r24
 2596               	.LM206:
 2597 0f0e 892F      		mov r24,r25
 2598 0f10 9927      		clr r25
 2599 0f12 F82E      		mov r15,r24
 2600               	.LBB192:
 2601               	.LBB193:
 2602               	.LM207:
 2603 0f14 8295      		swap r24
 2604 0f16 8F70      		andi r24,0x0f
 2605 0f18 0E94 0000 		call UART_send_HEX4
 2606               	.LM208:
 2607 0f1c 8F2D      		mov r24,r15
 2608 0f1e 8F70      		andi r24,lo8(15)
 2609 0f20 0E94 0000 		call UART_send_HEX4
 2610               	.LBE193:
 2611               	.LBE192:
 2612               	.LBB194:
 2613               	.LBB195:
 2614               	.LM209:
 2615 0f24 8E2D      		mov r24,r14
 2616 0f26 8295      		swap r24
 2617 0f28 8F70      		andi r24,0x0f
 2618 0f2a 0E94 0000 		call UART_send_HEX4
 2619               	.LM210:
 2620 0f2e 8E2D      		mov r24,r14
 2621 0f30 8F70      		andi r24,lo8(15)
 2622 0f32 0E94 0000 		call UART_send_HEX4
 2623               	.LBE195:
 2624               	.LBE194:
 2625               	/* epilogue: frame size=0 */
 2626 0f36 1F91      		pop r17
 2627 0f38 FF90      		pop r15
 2628 0f3a EF90      		pop r14
 2629 0f3c 0895      		ret
 2630               	/* epilogue end (size=4) */
 2631               	/* function UART_send_HEX16 size 28 (21) */
 2632               	.LFE12:
 2634               	.global	USRT_VIA_I2C
 2636               	USRT_VIA_I2C:
 2637               	.LFB13:
 2638               	.LM211:
 2639               	/* prologue: frame size=0 */
 2640               	/* prologue end (size=0) */
 2641               	.LM212:
 2642 0f3e 9091 0000 		lds r25,usrt_rx_buffer
 2643 0f42 9923      		tst r25
 2644 0f44 21F4      		brne .L486
 2645               	.LM213:
 2646 0f46 8091 0000 		lds r24,usrt_rx_buffer+1
 2647 0f4a 8823      		tst r24
 2648 0f4c 39F0      		breq .L484
 2649               	.L486:
 2650               	.LM214:
 2651 0f4e 892F      		mov r24,r25
 2652 0f50 0E94 0000 		call i2c_enqueue
 2653               	.LM215:
 2654 0f54 8091 0000 		lds r24,usrt_rx_buffer+1
 2655 0f58 0E94 0000 		call i2c_enqueue
 2656               	.L484:
 2657 0f5c 0895      		ret
 2658               	/* epilogue: frame size=0 */
 2659 0f5e 0895      		ret
 2660               	/* epilogue end (size=1) */
 2661               	/* function USRT_VIA_I2C size 17 (16) */
 2662               	.LFE13:
 2664               	.global	__vector_18
 2666               	__vector_18:
 2667               	.LFB14:
 2668               	.LM216:
 2669               	/* prologue: frame size=0 */
 2670 0f60 1F92      		push __zero_reg__
 2671 0f62 0F92      		push __tmp_reg__
 2672 0f64 0FB6      		in __tmp_reg__,__SREG__
 2673 0f66 0F92      		push __tmp_reg__
 2674 0f68 1124      		clr __zero_reg__
 2675 0f6a 2F93      		push r18
 2676 0f6c 3F93      		push r19
 2677 0f6e 4F93      		push r20
 2678 0f70 5F93      		push r21
 2679 0f72 6F93      		push r22
 2680 0f74 7F93      		push r23
 2681 0f76 8F93      		push r24
 2682 0f78 9F93      		push r25
 2683 0f7a AF93      		push r26
 2684 0f7c BF93      		push r27
 2685 0f7e EF93      		push r30
 2686 0f80 FF93      		push r31
 2687               	/* prologue end (size=17) */
 2688               	.LM217:
 2689 0f82 8091 0000 		lds r24,usrt_rx_count
 2690 0f86 8823      		tst r24
 2691 0f88 41F4      		brne .L490
 2692               	.LM218:
 2693 0f8a 8F5F      		subi r24,lo8(-(1))
 2694 0f8c 8093 0000 		sts usrt_rx_count,r24
 2695               	.LM219:
 2696 0f90 2091 C600 		lds r18,198
 2697 0f94 2093 0000 		sts usrt_rx_buffer,r18
 2698 0f98 0DC0      		rjmp .L487
 2699               	.L490:
 2700               	.LM220:
 2701 0f9a 8091 C600 		lds r24,198
 2702 0f9e 8093 0000 		sts usrt_rx_buffer+1,r24
 2703               	.LM221:
 2704 0fa2 1092 0000 		sts usrt_rx_count,__zero_reg__
 2705               	.LM222:
 2706               	/* #APP */
 2707 0fa6 7894      		sei
 2708               	.LM223:
 2709               	/* #NOAPP */
 2710 0fa8 6091 0000 		lds r22,usrt_rx_buffer+1
 2711 0fac 8091 0000 		lds r24,usrt_rx_buffer
 2712 0fb0 0E94 0000 		call USRT_DATA_RX_ISR
 2713               	.L487:
 2714               	/* epilogue: frame size=0 */
 2715 0fb4 FF91      		pop r31
 2716 0fb6 EF91      		pop r30
 2717 0fb8 BF91      		pop r27
 2718 0fba AF91      		pop r26
 2719 0fbc 9F91      		pop r25
 2720 0fbe 8F91      		pop r24
 2721 0fc0 7F91      		pop r23
 2722 0fc2 6F91      		pop r22
 2723 0fc4 5F91      		pop r21
 2724 0fc6 4F91      		pop r20
 2725 0fc8 3F91      		pop r19
 2726 0fca 2F91      		pop r18
 2727 0fcc 0F90      		pop __tmp_reg__
 2728 0fce 0FBE      		out __SREG__,__tmp_reg__
 2729 0fd0 0F90      		pop __tmp_reg__
 2730 0fd2 1F90      		pop __zero_reg__
 2731 0fd4 1895      		reti
 2732               	/* epilogue end (size=17) */
 2733               	/* function __vector_18 size 60 (26) */
 2734               	.LFE14:
 2736               		.comm usrt_rx_buffer,2,1
 2737               		.comm usrt_rx_count,1,1
 2738               	.Letext0:
DEFINED SYMBOLS
                            *ABS*:00000000 uart0.c
                            *ABS*:0000003f __SREG__
                            *ABS*:0000003e __SP_H__
                            *ABS*:0000003d __SP_L__
                            *ABS*:00000000 __tmp_reg__
                            *ABS*:00000001 __zero_reg__
c:\DOCUME~1\Jonathan\LOCALS~1\Temp/cc4cbaaa.s:20     .text:00000000 init_serial
                            *COM*:00000001 usrt_rx_count
c:\DOCUME~1\Jonathan\LOCALS~1\Temp/cc4cbaaa.s:80     .text:0000004e USRT_send_2bytes
c:\DOCUME~1\Jonathan\LOCALS~1\Temp/cc4cbaaa.s:97     .text:00000058 send_byte_serial
c:\DOCUME~1\Jonathan\LOCALS~1\Temp/cc4cbaaa.s:132    .text:00000084 uart0_force_byte
c:\DOCUME~1\Jonathan\LOCALS~1\Temp/cc4cbaaa.s:147    .text:0000008a UART_send_BIN4
c:\DOCUME~1\Jonathan\LOCALS~1\Temp/cc4cbaaa.s:1936   .text:00000b6c UART_send_BIN8
c:\DOCUME~1\Jonathan\LOCALS~1\Temp/cc4cbaaa.s:1987   .text:00000bb0 UART_send_HEX4
c:\DOCUME~1\Jonathan\LOCALS~1\Temp/cc4cbaaa.s:2519   .text:00000ebe UART_send_HEX8
c:\DOCUME~1\Jonathan\LOCALS~1\Temp/cc4cbaaa.s:2543   .text:00000ed6 UART_send_HEX16b
c:\DOCUME~1\Jonathan\LOCALS~1\Temp/cc4cbaaa.s:2587   .text:00000f06 UART_send_HEX16
c:\DOCUME~1\Jonathan\LOCALS~1\Temp/cc4cbaaa.s:2636   .text:00000f3e USRT_VIA_I2C
                            *COM*:00000002 usrt_rx_buffer
c:\DOCUME~1\Jonathan\LOCALS~1\Temp/cc4cbaaa.s:2666   .text:00000f60 __vector_18

UNDEFINED SYMBOLS
__do_copy_data
__do_clear_bss
i2c_enqueue
USRT_DATA_RX_ISR
